(dp1
(I18
I0
tp2
(dp3
(I18
I0
tp4
F0.008023340627279359
s(I12
I1
tp5
F0
s(I9
I1
tp6
F0
s(I3
I0
tp7
F0.0012156576707999028
s(I8
I0
tp8
F0.037199124726477024
s(I2
I1
tp9
F0
s(I15
I1
tp10
F0
s(I14
I0
tp11
F0.0075370775589593967
s(I19
I0
tp12
F0.26160953075613907
s(I5
I1
tp13
F0
s(I18
I1
tp14
F0
s(I4
I0
tp15
F0.0014587892049598833
s(I9
I0
tp16
F0.040602966204716755
s(I8
I1
tp17
F0
s(I21
I1
tp18
F0
s(I15
I0
tp19
F0.010697787503039144
s(I20
I0
tp20
F0.1463651835643083
s(I14
I1
tp21
F0
s(I11
I1
tp22
F0
s(I5
I0
tp23
F0.0031607099440797469
s(I10
I0
tp24
F0.022611232676878191
s(I4
I1
tp25
F0
s(I1
I1
tp26
F0
s(I0
I0
tp27
F0.012156576707999028
s(I21
I0
tp28
F0.10017019207391199
s(I7
I1
tp29
F0
s(I20
I1
tp30
F0
s(I6
I0
tp31
F0.013615365912958911
s(I17
I1
tp32
F0
s(I11
I0
tp33
F0.028689521030877706
s(I16
I0
tp34
F0.0048626306831996112
s(I10
I1
tp35
F0
s(I23
I1
tp36
F0
s(I1
I0
tp37
F0.0058351568198395333
s(I22
I0
tp38
F0.078288353999513741
s(I0
I1
tp39
F0
s(I13
I1
tp40
F0
s(I7
I0
tp41
F0.033065888645757352
s(I12
I0
tp42
F0.018721128130318503
s(I6
I1
tp43
F0
s(I3
I1
tp44
F0
s(I16
I1
tp45
F0
s(I2
I0
tp46
F0.0014587892049598833
s(I23
I0
tp47
F0.025285679552637975
s(I22
I1
tp48
F0
s(I19
I1
tp49
F0.11791879406759057
s(I17
I0
tp50
F0.0087527352297592995
s(I13
I0
tp51
F0.010697787503039144
ss(I12
I1
tp52
(dp53
(I18
I0
tp54
F0.0051644468605599346
s(I12
I1
tp55
F0
s(I9
I1
tp56
F0
s(I3
I0
tp57
F0
s(I8
I0
tp58
F0.0010872519706441968
s(I2
I1
tp59
F0
s(I15
I1
tp60
F0
s(I14
I0
tp61
F0.020114161456917641
s(I19
I0
tp62
F0.002718129926610492
s(I5
I1
tp63
F0
s(I18
I1
tp64
F0
s(I4
I0
tp65
F0
s(I9
I0
tp66
F0.002718129926610492
s(I8
I1
tp67
F0
s(I21
I1
tp68
F0
s(I15
I0
tp69
F0.013047023647730362
s(I20
I0
tp70
F0.002446316933949443
s(I14
I1
tp71
F0
s(I11
I1
tp72
F0
s(I5
I0
tp73
F0
s(I10
I0
tp74
F0.00027181299266104919
s(I4
I1
tp75
F0
s(I1
I1
tp76
F0
s(I0
I0
tp77
F0.00054362598532209838
s(I21
I0
tp78
F0.00081543897798314763
s(I7
I1
tp79
F0
s(I20
I1
tp80
F0
s(I6
I0
tp81
F0
s(I17
I1
tp82
F0
s(I11
I0
tp83
F0.00027181299266104919
s(I16
I0
tp84
F0.009241641750475673
s(I10
I1
tp85
F0
s(I23
I1
tp86
F0
s(I1
I0
tp87
F0
s(I22
I0
tp88
F0.00054362598532209838
s(I0
I1
tp89
F0
s(I13
I1
tp90
F0.88611035607502042
s(I7
I0
tp91
F0.001359064963305246
s(I12
I0
tp92
F0.00027181299266104919
s(I6
I1
tp93
F0
s(I3
I1
tp94
F0
s(I16
I1
tp95
F0
s(I2
I0
tp96
F0
s(I23
I0
tp97
F0.00027181299266104919
s(I22
I1
tp98
F0
s(I19
I1
tp99
F0
s(I17
I0
tp100
F0.0089698287578146227
s(I13
I0
tp101
F0.044033704811089973
ss(I9
I1
tp102
(dp103
(I18
I0
tp104
F0.0028460543337645535
s(I12
I1
tp105
F0
s(I9
I1
tp106
F0
s(I3
I0
tp107
F0
s(I8
I0
tp108
F0.00077619663648124189
s(I2
I1
tp109
F0
s(I15
I1
tp110
F0
s(I14
I0
tp111
F0.0046571798188874518
s(I19
I0
tp112
F0.0025873221216041399
s(I5
I1
tp113
F0
s(I18
I1
tp114
F0
s(I4
I0
tp115
F0
s(I9
I0
tp116
F0.00077619663648124189
s(I8
I1
tp117
F0
s(I21
I1
tp118
F0
s(I15
I0
tp119
F0.0028460543337645535
s(I20
I0
tp120
F0.0018111254851228978
s(I14
I1
tp121
F0
s(I11
I1
tp122
F0
s(I5
I0
tp123
F0
s(I10
I0
tp124
F0.045019404915912033
s(I4
I1
tp125
F0
s(I1
I1
tp126
F0
s(I0
I0
tp127
F0.00051746442432082796
s(I21
I0
tp128
F0.0015523932729624838
s(I7
I1
tp129
F0
s(I20
I1
tp130
F0
s(I6
I0
tp131
F0
s(I17
I1
tp132
F0
s(I11
I0
tp133
F0.014230271668822769
s(I16
I0
tp134
F0.0025873221216041399
s(I10
I1
tp135
F0.89469598965071151
s(I23
I1
tp136
F0
s(I1
I0
tp137
F0.00051746442432082796
s(I22
I0
tp138
F0.00129366106080207
s(I0
I1
tp139
F0
s(I13
I1
tp140
F0
s(I7
I0
tp141
F0
s(I12
I0
tp142
F0.011125485122897801
s(I6
I1
tp143
F0
s(I3
I1
tp144
F0
s(I16
I1
tp145
F0
s(I2
I0
tp146
F0
s(I23
I0
tp147
F0.00051746442432082796
s(I22
I1
tp148
F0
s(I19
I1
tp149
F0
s(I17
I0
tp150
F0.0025873221216041399
s(I13
I0
tp151
F0.0090556274256144882
ss(I3
I0
tp152
(dp153
(I18
I0
tp154
F0.024596884394643345
s(I12
I1
tp155
F0
s(I9
I1
tp156
F0
s(I3
I0
tp157
F0.00054659743099207429
s(I8
I0
tp158
F0.13446296802405028
s(I2
I1
tp159
F0
s(I15
I1
tp160
F0
s(I14
I0
tp161
F0.030336157420060125
s(I19
I0
tp162
F0.017217819076250342
s(I5
I1
tp163
F0
s(I18
I1
tp164
F0
s(I4
I0
tp165
F0.021044001093194861
s(I9
I0
tp166
F0.13009018857611368
s(I8
I1
tp167
F0
s(I21
I1
tp168
F0
s(I15
I0
tp169
F0.028423066411587865
s(I20
I0
tp170
F0.013664935774801858
s(I14
I1
tp171
F0
s(I11
I1
tp172
F0
s(I5
I0
tp173
F0.02596337797212353
s(I10
I0
tp174
F0.089368679967204157
s(I4
I1
tp175
F0.0060125717409128176
s(I1
I1
tp176
F0
s(I0
I0
tp177
F0.0016397922929762231
s(I21
I0
tp178
F0.012025143481825635
s(I7
I1
tp179
F0
s(I20
I1
tp180
F0
s(I6
I0
tp181
F0.061218912271112327
s(I17
I1
tp182
F0
s(I11
I0
tp183
F0.087728887674227929
s(I16
I0
tp184
F0.018857611369226566
s(I10
I1
tp185
F0
s(I23
I1
tp186
F0
s(I1
I0
tp187
F0.0013664935774801859
s(I22
I0
tp188
F0.030062858704564089
s(I0
I1
tp189
F0
s(I13
I1
tp190
F0
s(I7
I0
tp191
F0.1139655643618475
s(I12
I0
tp192
F0.064771795572560811
s(I6
I1
tp193
F0
s(I3
I1
tp194
F0
s(I16
I1
tp195
F0
s(I2
I0
tp196
F0
s(I23
I0
tp197
F0.0038261820169445205
s(I22
I1
tp198
F0
s(I19
I1
tp199
F0
s(I17
I0
tp200
F0.048920470073790655
s(I13
I0
tp201
F0.033889040721508612
ss(I8
I0
tp202
(dp203
(I18
I0
tp204
F0.032146652497343255
s(I12
I1
tp205
F0
s(I9
I1
tp206
F0.07970244420828905
s(I3
I0
tp207
F0.00053134962805526033
s(I8
I0
tp208
F0.0090329436769394263
s(I2
I1
tp209
F0
s(I15
I1
tp210
F0
s(I14
I0
tp211
F0.052337938363443144
s(I19
I0
tp212
F0.021253985122210415
s(I5
I1
tp213
F0
s(I18
I1
tp214
F0
s(I4
I0
tp215
F0.00026567481402763017
s(I9
I0
tp216
F0.21918172157279489
s(I8
I1
tp217
F0
s(I21
I1
tp218
F0
s(I15
I0
tp219
F0.037460148777895858
s(I20
I0
tp220
F0.0167375132837407
s(I14
I1
tp221
F0
s(I11
I1
tp222
F0
s(I5
I0
tp223
F0
s(I10
I0
tp224
F0.13549415515409138
s(I4
I1
tp225
F0
s(I1
I1
tp226
F0
s(I0
I0
tp227
F0.0021253985122210413
s(I21
I0
tp228
F0.013549415515409139
s(I7
I1
tp229
F0
s(I20
I1
tp230
F0
s(I6
I0
tp231
F0.0026567481402763019
s(I17
I1
tp232
F0
s(I11
I0
tp233
F0.11025504782146653
s(I16
I0
tp234
F0.026036131774707757
s(I10
I1
tp235
F0
s(I23
I1
tp236
F0
s(I1
I0
tp237
F0.0013283740701381509
s(I22
I0
tp238
F0.030286928799149841
s(I0
I1
tp239
F0
s(I13
I1
tp240
F0
s(I7
I0
tp241
F0.007970244420828906
s(I12
I0
tp242
F0.08528161530286929
s(I6
I1
tp243
F0
s(I3
I1
tp244
F0
s(I16
I1
tp245
F0
s(I2
I0
tp246
F0
s(I23
I0
tp247
F0.003985122210414453
s(I22
I1
tp248
F0
s(I19
I1
tp249
F0
s(I17
I0
tp250
F0.060839532412327313
s(I13
I0
tp251
F0.051540913921360253
ss(I2
I1
tp252
(dp253
(I18
I0
tp254
F0.00049578582052553293
s(I12
I1
tp255
F0
s(I9
I1
tp256
F0
s(I3
I0
tp257
F0.002478929102627665
s(I8
I0
tp258
F0.00049578582052553293
s(I2
I1
tp259
F0
s(I15
I1
tp260
F0
s(I14
I0
tp261
F0.00024789291026276647
s(I19
I0
tp262
F0
s(I5
I1
tp263
F0
s(I18
I1
tp264
F0
s(I4
I0
tp265
F0.00049578582052553293
s(I9
I0
tp266
F0.00074367873078829945
s(I8
I1
tp267
F0
s(I21
I1
tp268
F0
s(I15
I0
tp269
F0
s(I20
I0
tp270
F0
s(I14
I1
tp271
F0
s(I11
I1
tp272
F0
s(I5
I0
tp273
F0
s(I10
I0
tp274
F0.00074367873078829945
s(I4
I1
tp275
F0
s(I1
I1
tp276
F0
s(I0
I0
tp277
F0
s(I21
I0
tp278
F0
s(I7
I1
tp279
F0
s(I20
I1
tp280
F0
s(I6
I0
tp281
F0
s(I17
I1
tp282
F0
s(I11
I0
tp283
F0.00049578582052553293
s(I16
I0
tp284
F0
s(I10
I1
tp285
F0
s(I23
I1
tp286
F0
s(I1
I0
tp287
F0
s(I22
I0
tp288
F0
s(I0
I1
tp289
F0
s(I13
I1
tp290
F0
s(I7
I0
tp291
F0.00024789291026276647
s(I12
I0
tp292
F0.00074367873078829945
s(I6
I1
tp293
F0
s(I3
I1
tp294
F0.99181953396132871
s(I16
I1
tp295
F0
s(I2
I0
tp296
F0
s(I23
I0
tp297
F0
s(I22
I1
tp298
F0
s(I19
I1
tp299
F0
s(I17
I0
tp300
F0.00099157164105106587
s(I13
I0
tp301
F0
ss(I15
I1
tp302
(dp303
(I18
I0
tp304
F0.012230789683594789
s(I12
I1
tp305
F0
s(I9
I1
tp306
F0
s(I3
I0
tp307
F0.00026588673225206064
s(I8
I0
tp308
F0.0015953203935123637
s(I2
I1
tp309
F0
s(I15
I1
tp310
F0
s(I14
I0
tp311
F0
s(I19
I0
tp312
F0.0055836213772932734
s(I5
I1
tp313
F0
s(I18
I1
tp314
F0
s(I4
I0
tp315
F0
s(I9
I0
tp316
F0
s(I8
I1
tp317
F0
s(I21
I1
tp318
F0
s(I15
I0
tp319
F0.00026588673225206064
s(I20
I0
tp320
F0.0050518479127891515
s(I14
I1
tp321
F0
s(I11
I1
tp322
F0
s(I5
I0
tp323
F0.00053177346450412129
s(I10
I0
tp324
F0.00079766019675618183
s(I4
I1
tp325
F0
s(I1
I1
tp326
F0
s(I0
I0
tp327
F0.00053177346450412129
s(I21
I0
tp328
F0.0037224142515288488
s(I7
I1
tp329
F0
s(I20
I1
tp330
F0
s(I6
I0
tp331
F0.0010635469290082426
s(I17
I1
tp332
F0
s(I11
I0
tp333
F0.00053177346450412129
s(I16
I0
tp334
F0.040148896570061154
s(I10
I1
tp335
F0
s(I23
I1
tp336
F0
s(I1
I0
tp337
F0
s(I22
I0
tp338
F0.0026588673225206062
s(I0
I1
tp339
F0
s(I13
I1
tp340
F0
s(I7
I0
tp341
F0.00079766019675618183
s(I12
I0
tp342
F0.00053177346450412129
s(I6
I1
tp343
F0
s(I3
I1
tp344
F0
s(I16
I1
tp345
F0.90321722946024996
s(I2
I0
tp346
F0
s(I23
I0
tp347
F0.0018612071257644244
s(I22
I1
tp348
F0
s(I19
I1
tp349
F0
s(I17
I0
tp350
F0.018080297793140122
s(I13
I0
tp351
F0.00053177346450412129
ss(I14
I0
tp352
(dp353
(I18
I0
tp354
F0.086498407253124229
s(I12
I1
tp355
F0
s(I9
I1
tp356
F0
s(I3
I0
tp357
F0.00049007596177407496
s(I8
I0
tp358
F0.017152658662092625
s(I2
I1
tp359
F0
s(I15
I1
tp360
F0.11051212938005391
s(I14
I0
tp361
F0.0039206076941925997
s(I19
I0
tp362
F0.071061014457240876
s(I5
I1
tp363
F0
s(I18
I1
tp364
F0
s(I4
I0
tp365
F0.00049007596177407496
s(I9
I0
tp366
F0.025974025974025976
s(I8
I1
tp367
F0
s(I21
I1
tp368
F0
s(I15
I0
tp369
F0.19676549865229109
s(I20
I0
tp370
F0.042146532712570448
s(I14
I1
tp371
F0
s(I11
I1
tp372
F0
s(I5
I0
tp373
F0.0012251899044351876
s(I10
I0
tp374
F0.012496937025238911
s(I4
I1
tp375
F0
s(I1
I1
tp376
F0
s(I0
I0
tp377
F0.0066160254839500122
s(I21
I0
tp378
F0.03430531732418525
s(I7
I1
tp379
F0
s(I20
I1
tp380
F0
s(I6
I0
tp381
F0.0049007596177407502
s(I17
I1
tp382
F0
s(I11
I0
tp383
F0.022298456260720412
s(I16
I0
tp384
F0.12594952217593727
s(I10
I1
tp385
F0
s(I23
I1
tp386
F0
s(I1
I0
tp387
F0.0034305317324185248
s(I22
I0
tp388
F0.04092134280813526
s(I0
I1
tp389
F0
s(I13
I1
tp390
F0
s(I7
I0
tp391
F0.015682430776770399
s(I12
I0
tp392
F0.012006861063464836
s(I6
I1
tp393
F0
s(I3
I1
tp394
F0
s(I16
I1
tp395
F0
s(I2
I0
tp396
F0.00024503798088703748
s(I23
I0
tp397
F0.0080862533692722376
s(I22
I1
tp398
F0
s(I19
I1
tp399
F0
s(I17
I0
tp400
F0.15020828228375399
s(I13
I0
tp401
F0.0066160254839500122
ss(I19
I0
tp402
(dp403
(I18
I0
tp404
F0.0093160088256925722
s(I12
I1
tp405
F0
s(I9
I1
tp406
F0
s(I3
I0
tp407
F0.0019612650159352781
s(I8
I0
tp408
F0.049031625398381955
s(I2
I1
tp409
F0
s(I15
I1
tp410
F0
s(I14
I0
tp411
F0.0095611669526844811
s(I19
I0
tp412
F0.0053934787938220152
s(I5
I1
tp413
F0
s(I18
I1
tp414
F0
s(I4
I0
tp415
F0.0022064231429271882
s(I9
I0
tp416
F0.049521941652365779
s(I8
I1
tp417
F0
s(I21
I1
tp418
F0
s(I15
I0
tp419
F0.01201274822260358
s(I20
I0
tp420
F0.25324834518264283
s(I14
I1
tp421
F0
s(I11
I1
tp422
F0
s(I5
I0
tp423
F0.0044128462858543764
s(I10
I0
tp424
F0.027948026477077715
s(I4
I1
tp425
F0
s(I1
I1
tp426
F0
s(I0
I0
tp427
F0.016425594508457955
s(I21
I0
tp428
F0.14832066683010542
s(I7
I1
tp429
F0
s(I20
I1
tp430
F0.12478548663888207
s(I6
I0
tp431
F0.016915910762441776
s(I17
I1
tp432
F0
s(I11
I0
tp433
F0.031870556508948274
s(I16
I0
tp434
F0.0058837950478058346
s(I10
I1
tp435
F0
s(I23
I1
tp436
F0
s(I1
I0
tp437
F0.0088256925717087528
s(I22
I0
tp438
F0.096837460161804362
s(I0
I1
tp439
F0
s(I13
I1
tp440
F0
s(I7
I0
tp441
F0.042412355969600392
s(I12
I0
tp442
F0.022064231429271882
s(I6
I1
tp443
F0
s(I3
I1
tp444
F0
s(I16
I1
tp445
F0
s(I2
I0
tp446
F0.0036773719048786469
s(I23
I0
tp447
F0.034322137778867369
s(I22
I1
tp448
F0
s(I19
I1
tp449
F0
s(I17
I0
tp450
F0.01127727384162785
s(I13
I0
tp451
F0.011767590095611669
ss(I5
I1
tp452
(dp453
(I18
I0
tp454
F0.0007414730598121602
s(I12
I1
tp455
F0
s(I9
I1
tp456
F0
s(I3
I0
tp457
F0
s(I8
I0
tp458
F0.00098863074641621345
s(I2
I1
tp459
F0
s(I15
I1
tp460
F0
s(I14
I0
tp461
F0.00049431537320810673
s(I19
I0
tp462
F0
s(I5
I1
tp463
F0
s(I18
I1
tp464
F0
s(I4
I0
tp465
F0
s(I9
I0
tp466
F0.00049431537320810673
s(I8
I1
tp467
F0
s(I21
I1
tp468
F0
s(I15
I0
tp469
F0.00024715768660405336
s(I20
I0
tp470
F0.00024715768660405336
s(I14
I1
tp471
F0
s(I11
I1
tp472
F0
s(I5
I0
tp473
F0
s(I10
I0
tp474
F0.00049431537320810673
s(I4
I1
tp475
F0
s(I1
I1
tp476
F0
s(I0
I0
tp477
F0
s(I21
I0
tp478
F0
s(I7
I1
tp479
F0
s(I20
I1
tp480
F0
s(I6
I0
tp481
F0.001235788433020267
s(I17
I1
tp482
F0
s(I11
I0
tp483
F0.0007414730598121602
s(I16
I0
tp484
F0
s(I10
I1
tp485
F0
s(I23
I1
tp486
F0
s(I1
I0
tp487
F0
s(I22
I0
tp488
F0
s(I0
I1
tp489
F0
s(I13
I1
tp490
F0
s(I7
I0
tp491
F0.0019772614928324269
s(I12
I0
tp492
F0.00024715768660405336
s(I6
I1
tp493
F0.99159663865546221
s(I3
I1
tp494
F0
s(I16
I1
tp495
F0
s(I2
I0
tp496
F0
s(I23
I0
tp497
F0
s(I22
I1
tp498
F0
s(I19
I1
tp499
F0
s(I17
I0
tp500
F0
s(I13
I0
tp501
F0.00049431537320810673
ss(I18
I1
tp502
(dp503
(I18
I0
tp504
F0.0005575689991636465
s(I12
I1
tp505
F0
s(I9
I1
tp506
F0
s(I3
I0
tp507
F0
s(I8
I0
tp508
F0.0030666294954000556
s(I2
I1
tp509
F0
s(I15
I1
tp510
F0
s(I14
I0
tp511
F0.00027878449958182325
s(I19
I0
tp512
F0.055478115416782825
s(I5
I1
tp513
F0
s(I18
I1
tp514
F0
s(I4
I0
tp515
F0.00027878449958182325
s(I9
I0
tp516
F0.0016727069974909396
s(I8
I1
tp517
F0
s(I21
I1
tp518
F0
s(I15
I0
tp519
F0
s(I20
I0
tp520
F0.026484527460273209
s(I14
I1
tp521
F0
s(I11
I1
tp522
F0
s(I5
I0
tp523
F0
s(I10
I0
tp524
F0.002230275996654586
s(I4
I1
tp525
F0
s(I1
I1
tp526
F0
s(I0
I0
tp527
F0.0016727069974909396
s(I21
I0
tp528
F0.01533314747700028
s(I7
I1
tp529
F0
s(I20
I1
tp530
F0
s(I6
I0
tp531
F0.001115137998327293
s(I17
I1
tp532
F0
s(I11
I0
tp533
F0.001115137998327293
s(I16
I0
tp534
F0.0005575689991636465
s(I10
I1
tp535
F0
s(I23
I1
tp536
F0
s(I1
I0
tp537
F0.0008363534987454698
s(I22
I0
tp538
F0.0066908279899637584
s(I0
I1
tp539
F0
s(I13
I1
tp540
F0
s(I7
I0
tp541
F0.0027878449958182324
s(I12
I0
tp542
F0.0019514914970727628
s(I6
I1
tp543
F0
s(I3
I1
tp544
F0
s(I16
I1
tp545
F0
s(I2
I0
tp546
F0.0005575689991636465
s(I23
I0
tp547
F0.0025090604962364092
s(I22
I1
tp548
F0
s(I19
I1
tp549
F0.87426819068859773
s(I17
I0
tp550
F0.0005575689991636465
s(I13
I0
tp551
F0
ss(I4
I0
tp552
(dp553
(I18
I0
tp554
F0.024876981957353744
s(I12
I1
tp555
F0
s(I9
I1
tp556
F0
s(I3
I0
tp557
F0.00054674685620557679
s(I8
I0
tp558
F0.13477310005467469
s(I2
I1
tp559
F0
s(I15
I1
tp560
F0
s(I14
I0
tp561
F0.031711317659923452
s(I19
I0
tp562
F0.017769272826681247
s(I5
I1
tp563
F0.007927829414980863
s(I18
I1
tp564
F0
s(I4
I0
tp565
F0.00027337342810278839
s(I9
I0
tp566
F0.13176599234554401
s(I8
I1
tp567
F0
s(I21
I1
tp568
F0
s(I15
I0
tp569
F0.029250956806998359
s(I20
I0
tp570
F0.013668671405139421
s(I14
I1
tp571
F0
s(I11
I1
tp572
F0
s(I5
I0
tp573
F0.029797703663203938
s(I10
I0
tp574
F0.090213231273920169
s(I4
I1
tp575
F0
s(I1
I1
tp576
F0
s(I0
I0
tp577
F0.0016402405686167304
s(I21
I0
tp578
F0.012301804264625479
s(I7
I1
tp579
F0
s(I20
I1
tp580
F0
s(I6
I0
tp581
F0.062602515035538542
s(I17
I1
tp582
F0
s(I11
I0
tp583
F0.089393110989611807
s(I16
I0
tp584
F0.019136139967195188
s(I10
I1
tp585
F0
s(I23
I1
tp586
F0
s(I1
I0
tp587
F0.001366867140513942
s(I22
I0
tp588
F0.030071077091306724
s(I0
I1
tp589
F0
s(I13
I1
tp590
F0
s(I7
I0
tp591
F0.11427009294696555
s(I12
I0
tp592
F0.067249863313285946
s(I6
I1
tp593
F0
s(I3
I1
tp594
F0
s(I16
I1
tp595
F0
s(I2
I0
tp596
F0
s(I23
I0
tp597
F0.0038272279934390375
s(I22
I1
tp598
F0
s(I19
I1
tp599
F0
s(I17
I0
tp600
F0.049753963914707489
s(I13
I0
tp601
F0.035811919081465284
ss(I9
I0
tp602
(dp603
(I18
I0
tp604
F0.035984354628422428
s(I12
I1
tp605
F0
s(I9
I1
tp606
F0
s(I3
I0
tp607
F0.00052151238591916557
s(I8
I0
tp608
F0.009126466753585397
s(I2
I1
tp609
F0
s(I15
I1
tp610
F0
s(I14
I0
tp611
F0.063885267275097787
s(I19
I0
tp612
F0.024511082138200781
s(I5
I1
tp613
F0
s(I18
I1
tp614
F0
s(I4
I0
tp615
F0.00026075619295958278
s(I9
I0
tp616
F0.016949152542372881
s(I8
I1
tp617
F0
s(I21
I1
tp618
F0
s(I15
I0
tp619
F0.043807040417209911
s(I20
I0
tp620
F0.01877444589308996
s(I14
I1
tp621
F0
s(I11
I1
tp622
F0
s(I5
I0
tp623
F0
s(I10
I0
tp624
F0.21486310299869621
s(I4
I1
tp625
F0
s(I1
I1
tp626
F0
s(I0
I0
tp627
F0.002346805736636245
s(I21
I0
tp628
F0.014863102998696219
s(I7
I1
tp629
F0
s(I20
I1
tp630
F0
s(I6
I0
tp631
F0.0028683181225554106
s(I17
I1
tp632
F0
s(I11
I0
tp633
F0.14445893089960887
s(I16
I0
tp634
F0.030508474576271188
s(I10
I1
tp635
F0.090743155149934807
s(I23
I1
tp636
F0
s(I1
I0
tp637
F0.0013037809647979139
s(I22
I0
tp638
F0.031551499348109517
s(I0
I1
tp639
F0
s(I13
I1
tp640
F0
s(I7
I0
tp641
F0.008344198174706649
s(I12
I0
tp642
F0.10560625814863103
s(I6
I1
tp643
F0
s(I3
I1
tp644
F0
s(I16
I1
tp645
F0
s(I2
I0
tp646
F0
s(I23
I0
tp647
F0.0044328552803129077
s(I22
I1
tp648
F0
s(I19
I1
tp649
F0
s(I17
I0
tp650
F0.068839634941329858
s(I13
I0
tp651
F0.06544980443285528
ss(I8
I1
tp652
(dp653
(I18
I0
tp654
F0.0022865853658536584
s(I12
I1
tp655
F0
s(I9
I1
tp656
F0.90574186991869921
s(I3
I0
tp657
F0
s(I8
I0
tp658
F0.00025406504065040653
s(I2
I1
tp659
F0
s(I15
I1
tp660
F0
s(I14
I0
tp661
F0.0038109756097560975
s(I19
I0
tp662
F0.0015243902439024391
s(I5
I1
tp663
F0
s(I18
I1
tp664
F0
s(I4
I0
tp665
F0
s(I9
I0
tp666
F0.036839430894308946
s(I8
I1
tp667
F0
s(I21
I1
tp668
F0
s(I15
I0
tp669
F0.002540650406504065
s(I20
I0
tp670
F0.00050813008130081306
s(I14
I1
tp671
F0
s(I11
I1
tp672
F0
s(I5
I0
tp673
F0
s(I10
I0
tp674
F0.018038617886178863
s(I4
I1
tp675
F0
s(I1
I1
tp676
F0
s(I0
I0
tp677
F0
s(I21
I0
tp678
F0.00025406504065040653
s(I7
I1
tp679
F0
s(I20
I1
tp680
F0
s(I6
I0
tp681
F0
s(I17
I1
tp682
F0
s(I11
I0
tp683
F0.007621951219512195
s(I16
I0
tp684
F0.0022865853658536584
s(I10
I1
tp685
F0
s(I23
I1
tp686
F0
s(I1
I0
tp687
F0
s(I22
I0
tp688
F0.00025406504065040653
s(I0
I1
tp689
F0
s(I13
I1
tp690
F0
s(I7
I0
tp691
F0.00025406504065040653
s(I12
I0
tp692
F0.0066056910569105695
s(I6
I1
tp693
F0
s(I3
I1
tp694
F0
s(I16
I1
tp695
F0
s(I2
I0
tp696
F0
s(I23
I0
tp697
F0
s(I22
I1
tp698
F0
s(I19
I1
tp699
F0
s(I17
I0
tp700
F0.0045731707317073168
s(I13
I0
tp701
F0.0066056910569105695
ss(I21
I1
tp702
(dp703
(I18
I0
tp704
F0.0010893246187363835
s(I12
I1
tp705
F0
s(I9
I1
tp706
F0
s(I3
I0
tp707
F0.00027233115468409589
s(I8
I0
tp708
F0.0068082788671023969
s(I2
I1
tp709
F0
s(I15
I1
tp710
F0
s(I14
I0
tp711
F0.00081699346405228761
s(I19
I0
tp712
F0.00054466230936819177
s(I5
I1
tp713
F0
s(I18
I1
tp714
F0
s(I4
I0
tp715
F0.0010893246187363835
s(I9
I0
tp716
F0.0073529411764705881
s(I8
I1
tp717
F0
s(I21
I1
tp718
F0
s(I15
I0
tp719
F0.00054466230936819177
s(I20
I0
tp720
F0.00054466230936819177
s(I14
I1
tp721
F0
s(I11
I1
tp722
F0
s(I5
I0
tp723
F0.0010893246187363835
s(I10
I0
tp724
F0.0043572984749455342
s(I4
I1
tp725
F0
s(I1
I1
tp726
F0
s(I0
I0
tp727
F0.0051742919389978215
s(I21
I0
tp728
F0.00027233115468409589
s(I7
I1
tp729
F0
s(I20
I1
tp730
F0
s(I6
I0
tp731
F0.0029956427015250544
s(I17
I1
tp732
F0
s(I11
I0
tp733
F0.0027233115468409588
s(I16
I0
tp734
F0.0013616557734204794
s(I10
I1
tp735
F0
s(I23
I1
tp736
F0
s(I1
I0
tp737
F0.0027233115468409588
s(I22
I0
tp738
F0.038671023965141611
s(I0
I1
tp739
F0
s(I13
I1
tp740
F0
s(I7
I0
tp741
F0.0046296296296296294
s(I12
I0
tp742
F0.0021786492374727671
s(I6
I1
tp743
F0
s(I3
I1
tp744
F0
s(I16
I1
tp745
F0
s(I2
I0
tp746
F0
s(I23
I0
tp747
F0.016339869281045753
s(I22
I1
tp748
F0.89379084967320266
s(I19
I1
tp749
F0
s(I17
I0
tp750
F0.0029956427015250544
s(I13
I0
tp751
F0.0016339869281045752
ss(I15
I0
tp752
(dp753
(I18
I0
tp754
F0.11144960649911145
s(I12
I1
tp755
F0
s(I9
I1
tp756
F0
s(I3
I0
tp757
F0.00050774308200050779
s(I8
I0
tp758
F0.019548108657019548
s(I2
I1
tp759
F0
s(I15
I1
tp760
F0
s(I14
I0
tp761
F0.00456968773800457
s(I19
I0
tp762
F0.09063214013709063
s(I5
I1
tp763
F0
s(I18
I1
tp764
F0
s(I4
I0
tp765
F0.00050774308200050779
s(I9
I0
tp766
F0.029195227215029197
s(I8
I1
tp767
F0
s(I21
I1
tp768
F0
s(I15
I0
tp769
F0.00913937547600914
s(I20
I0
tp770
F0.053820766692053823
s(I14
I1
tp771
F0
s(I11
I1
tp772
F0
s(I5
I0
tp773
F0.0012693577050012694
s(I10
I0
tp774
F0.014724549378014725
s(I4
I1
tp775
F0
s(I1
I1
tp776
F0
s(I0
I0
tp777
F0.0078700177710078704
s(I21
I0
tp778
F0.043158161970043157
s(I7
I1
tp779
F0
s(I20
I1
tp780
F0
s(I6
I0
tp781
F0.0053313023610053311
s(I17
I1
tp782
F0
s(I11
I0
tp783
F0.023863924854023864
s(I16
I0
tp784
F0.1937039857831937
s(I10
I1
tp785
F0
s(I23
I1
tp786
F0
s(I1
I0
tp787
F0.0038080731150038081
s(I22
I0
tp788
F0.046458492003046456
s(I0
I1
tp789
F0
s(I13
I1
tp790
F0
s(I7
I0
tp791
F0.017771007870017771
s(I12
I0
tp792
F0.013455191673013456
s(I6
I1
tp793
F0
s(I3
I1
tp794
F0
s(I16
I1
tp795
F0.098502157908098506
s(I2
I0
tp796
F0.00076161462300076163
s(I23
I0
tp797
F0.010662604722010662
s(I22
I1
tp798
F0
s(I19
I1
tp799
F0
s(I17
I0
tp800
F0.19141914191419143
s(I13
I0
tp801
F0.0078700177710078704
ss(I20
I0
tp802
(dp803
(I18
I0
tp804
F0.010113468179575728
s(I12
I1
tp805
F0
s(I9
I1
tp806
F0
s(I3
I0
tp807
F0.0029600394671928957
s(I8
I0
tp808
F0.061174148988653185
s(I2
I1
tp809
F0
s(I15
I1
tp810
F0
s(I14
I0
tp811
F0.01356684755796744
s(I19
I0
tp812
F0.0059200789343857915
s(I5
I1
tp813
F0
s(I18
I1
tp814
F0
s(I4
I0
tp815
F0.002220029600394672
s(I9
I0
tp816
F0.061667488899851998
s(I8
I1
tp817
F0
s(I21
I1
tp818
F0.11963492846571287
s(I15
I0
tp819
F0.01480019733596448
s(I20
I0
tp820
F0.0066600888011840156
s(I14
I1
tp821
F0
s(I11
I1
tp822
F0
s(I5
I0
tp823
F0.0059200789343857915
s(I10
I0
tp824
F0.036507153428712386
s(I4
I1
tp825
F0
s(I1
I1
tp826
F0
s(I0
I0
tp827
F0.023926985693142576
s(I21
I0
tp828
F0.23729649728663049
s(I7
I1
tp829
F0
s(I20
I1
tp830
F0
s(I6
I0
tp831
F0.023926985693142576
s(I17
I1
tp832
F0
s(I11
I0
tp833
F0.039960532807104092
s(I16
I0
tp834
F0.008140108534780463
s(I10
I1
tp835
F0
s(I23
I1
tp836
F0
s(I1
I0
tp837
F0.013320177602368031
s(I22
I0
tp838
F0.13961519486926494
s(I0
I1
tp839
F0
s(I13
I1
tp840
F0
s(I7
I0
tp841
F0.055994079921065615
s(I12
I0
tp842
F0.027380365071534286
s(I6
I1
tp843
F0
s(I3
I1
tp844
F0
s(I16
I1
tp845
F0
s(I2
I0
tp846
F0.0049333991119881598
s(I23
I0
tp847
F0.052787370498273312
s(I22
I1
tp848
F0
s(I19
I1
tp849
F0
s(I17
I0
tp850
F0.018006906758756783
s(I13
I0
tp851
F0.01356684755796744
ss(I14
I1
tp852
(dp853
(I18
I0
tp854
F0.0082895827576678644
s(I12
I1
tp855
F0
s(I9
I1
tp856
F0
s(I3
I0
tp857
F0
s(I8
I0
tp858
F0.00027631942525559546
s(I2
I1
tp859
F0
s(I15
I1
tp860
F0.91461729759602095
s(I14
I0
tp861
F0
s(I19
I0
tp862
F0.005526388505111909
s(I5
I1
tp863
F0
s(I18
I1
tp864
F0
s(I4
I0
tp865
F0
s(I9
I0
tp866
F0.0011052777010223818
s(I8
I1
tp867
F0
s(I21
I1
tp868
F0
s(I15
I0
tp869
F0.030947775628626693
s(I20
I0
tp870
F0.0038684719535783366
s(I14
I1
tp871
F0
s(I11
I1
tp872
F0
s(I5
I0
tp873
F0
s(I10
I0
tp874
F0.0011052777010223818
s(I4
I1
tp875
F0
s(I1
I1
tp876
F0
s(I0
I0
tp877
F0.00082895827576678644
s(I21
I0
tp878
F0.0033158331030671458
s(I7
I1
tp879
F0
s(I20
I1
tp880
F0
s(I6
I0
tp881
F0
s(I17
I1
tp882
F0
s(I11
I0
tp883
F0.00027631942525559546
s(I16
I0
tp884
F0.015197568389057751
s(I10
I1
tp885
F0
s(I23
I1
tp886
F0
s(I1
I0
tp887
F0
s(I22
I0
tp888
F0.0013815971262779773
s(I0
I1
tp889
F0
s(I13
I1
tp890
F0
s(I7
I0
tp891
F0.00055263885051119092
s(I12
I0
tp892
F0
s(I6
I1
tp893
F0
s(I3
I1
tp894
F0
s(I16
I1
tp895
F0
s(I2
I0
tp896
F0.00055263885051119092
s(I23
I0
tp897
F0.0013815971262779773
s(I22
I1
tp898
F0
s(I19
I1
tp899
F0
s(I17
I0
tp900
F0.010500138159712628
s(I13
I0
tp901
F0.00027631942525559546
ss(I11
I1
tp902
(dp903
(I18
I0
tp904
F0.0040214477211796247
s(I12
I1
tp905
F0.88927613941018768
s(I9
I1
tp906
F0
s(I3
I0
tp907
F0
s(I8
I0
tp908
F0.00053619302949061668
s(I2
I1
tp909
F0
s(I15
I1
tp910
F0
s(I14
I0
tp911
F0.013136729222520108
s(I19
I0
tp912
F0.0040214477211796247
s(I5
I1
tp913
F0
s(I18
I1
tp914
F0
s(I4
I0
tp915
F0
s(I9
I0
tp916
F0.0008042895442359249
s(I8
I1
tp917
F0
s(I21
I1
tp918
F0
s(I15
I0
tp919
F0.0077747989276139408
s(I20
I0
tp920
F0.0010723860589812334
s(I14
I1
tp921
F0
s(I11
I1
tp922
F0
s(I5
I0
tp923
F0
s(I10
I0
tp924
F0
s(I4
I1
tp925
F0
s(I1
I1
tp926
F0
s(I0
I0
tp927
F0.00026809651474530834
s(I21
I0
tp928
F0.0013404825737265416
s(I7
I1
tp929
F0
s(I20
I1
tp930
F0
s(I6
I0
tp931
F0.00053619302949061668
s(I17
I1
tp932
F0
s(I11
I0
tp933
F0.00053619302949061668
s(I16
I0
tp934
F0.0040214477211796247
s(I10
I1
tp935
F0
s(I23
I1
tp936
F0
s(I1
I0
tp937
F0.00053619302949061668
s(I22
I0
tp938
F0.00026809651474530834
s(I0
I1
tp939
F0
s(I13
I1
tp940
F0
s(I7
I0
tp941
F0
s(I12
I0
tp942
F0.04906166219839142
s(I6
I1
tp943
F0
s(I3
I1
tp944
F0
s(I16
I1
tp945
F0
s(I2
I0
tp946
F0
s(I23
I0
tp947
F0
s(I22
I1
tp948
F0
s(I19
I1
tp949
F0
s(I17
I0
tp950
F0.0048257372654155499
s(I13
I0
tp951
F0.017962466487935657
ss(I5
I0
tp952
(dp953
(I18
I0
tp954
F0.025725232621784347
s(I12
I1
tp955
F0
s(I9
I1
tp956
F0
s(I3
I0
tp957
F0.00054734537493158185
s(I8
I0
tp958
F0.13847837985769021
s(I2
I1
tp959
F0
s(I15
I1
tp960
F0
s(I14
I0
tp961
F0.033661740558292283
s(I19
I0
tp962
F0.018062397372742199
s(I5
I1
tp963
F0
s(I18
I1
tp964
F0
s(I4
I0
tp965
F0.00027367268746579092
s(I9
I0
tp966
F0.13409961685823754
s(I8
I1
tp967
F0
s(I21
I1
tp968
F0
s(I15
I0
tp969
F0.030103995621237001
s(I20
I0
tp970
F0.013683634373289545
s(I14
I1
tp971
F0
s(I11
I1
tp972
F0
s(I5
I0
tp973
F0
s(I10
I0
tp974
F0.091133004926108374
s(I4
I1
tp975
F0
s(I1
I1
tp976
F0
s(I0
I0
tp977
F0.0016420361247947454
s(I21
I0
tp978
F0.012315270935960592
s(I7
I1
tp979
F0
s(I20
I1
tp980
F0
s(I6
I0
tp981
F0.067049808429118771
s(I17
I1
tp982
F0
s(I11
I0
tp983
F0.092775041050903118
s(I16
I0
tp984
F0.019157088122605363
s(I10
I1
tp985
F0
s(I23
I1
tp986
F0
s(I1
I0
tp987
F0.0013683634373289546
s(I22
I0
tp988
F0.030103995621237001
s(I0
I1
tp989
F0
s(I13
I1
tp990
F0
s(I7
I0
tp991
F0.11685823754789272
s(I12
I0
tp992
F0.068691844553913514
s(I6
I1
tp993
F0.012315270935960592
s(I3
I1
tp994
F0
s(I16
I1
tp995
F0
s(I2
I0
tp996
F0
s(I23
I0
tp997
F0.0038314176245210726
s(I22
I1
tp998
F0
s(I19
I1
tp999
F0
s(I17
I0
tp1000
F0.05090311986863711
s(I13
I0
tp1001
F0.037219485495347565
ss(I10
I0
tp1002
(dp1003
(I18
I0
tp1004
F0.040832049306625574
s(I12
I1
tp1005
F0
s(I9
I1
tp1006
F0
s(I3
I0
tp1007
F0.00051361068310220854
s(I8
I0
tp1008
F0.010529019003595274
s(I2
I1
tp1009
F0
s(I15
I1
tp1010
F0
s(I14
I0
tp1011
F0.077041602465331274
s(I19
I0
tp1012
F0.028762198253723677
s(I5
I1
tp1013
F0
s(I18
I1
tp1014
F0
s(I4
I0
tp1015
F0.00025680534155110427
s(I9
I0
tp1016
F0.018233179250128403
s(I8
I1
tp1017
F0
s(I21
I1
tp1018
F0
s(I15
I0
tp1019
F0.052131484334874169
s(I20
I0
tp1020
F0.021314843348741654
s(I14
I1
tp1021
F0
s(I11
I1
tp1022
F0.092963533641499743
s(I5
I0
tp1023
F0
s(I10
I0
tp1024
F0.0087313816127375446
s(I4
I1
tp1025
F0
s(I1
I1
tp1026
F0
s(I0
I0
tp1027
F0.0033384694401643552
s(I21
I0
tp1028
F0.017462763225475089
s(I7
I1
tp1029
F0
s(I20
I1
tp1030
F0
s(I6
I0
tp1031
F0.0030816640986132513
s(I17
I1
tp1032
F0
s(I11
I0
tp1033
F0.22598870056497175
s(I16
I0
tp1034
F0.035695942475603495
s(I10
I1
tp1035
F0
s(I23
I1
tp1036
F0
s(I1
I0
tp1037
F0.0020544427324088342
s(I22
I0
tp1038
F0.033127889060092452
s(I0
I1
tp1039
F0
s(I13
I1
tp1040
F0
s(I7
I0
tp1041
F0.0092449922958397542
s(I12
I0
tp1042
F0.14740626605033386
s(I6
I1
tp1043
F0
s(I3
I1
tp1044
F0
s(I16
I1
tp1045
F0
s(I2
I0
tp1046
F0
s(I23
I0
tp1047
F0.0048793014894709811
s(I22
I1
tp1048
F0
s(I19
I1
tp1049
F0
s(I17
I0
tp1050
F0.076014381099126865
s(I13
I0
tp1051
F0.0903954802259887
ss(I4
I1
tp1052
(dp1053
(I18
I0
tp1054
F0.00024740227610094015
s(I12
I1
tp1055
F0
s(I9
I1
tp1056
F0
s(I3
I0
tp1057
F0
s(I8
I0
tp1058
F0.00049480455220188031
s(I2
I1
tp1059
F0
s(I15
I1
tp1060
F0
s(I14
I0
tp1061
F0.00024740227610094015
s(I19
I0
tp1062
F0.00024740227610094015
s(I5
I1
tp1063
F0.99381494309747653
s(I18
I1
tp1064
F0
s(I4
I0
tp1065
F0
s(I9
I0
tp1066
F0.00074220682830282035
s(I8
I1
tp1067
F0
s(I21
I1
tp1068
F0
s(I15
I0
tp1069
F0.00049480455220188031
s(I20
I0
tp1070
F0
s(I14
I1
tp1071
F0
s(I11
I1
tp1072
F0
s(I5
I0
tp1073
F0.00049480455220188031
s(I10
I0
tp1074
F0
s(I4
I1
tp1075
F0
s(I1
I1
tp1076
F0
s(I0
I0
tp1077
F0
s(I21
I0
tp1078
F0
s(I7
I1
tp1079
F0
s(I20
I1
tp1080
F0
s(I6
I0
tp1081
F0.00074220682830282035
s(I17
I1
tp1082
F0
s(I11
I0
tp1083
F0.0014844136566056407
s(I16
I0
tp1084
F0
s(I10
I1
tp1085
F0
s(I23
I1
tp1086
F0
s(I1
I0
tp1087
F0
s(I22
I0
tp1088
F0
s(I0
I1
tp1089
F0
s(I13
I1
tp1090
F0
s(I7
I0
tp1091
F0.00049480455220188031
s(I12
I0
tp1092
F0.00024740227610094015
s(I6
I1
tp1093
F0
s(I3
I1
tp1094
F0
s(I16
I1
tp1095
F0
s(I2
I0
tp1096
F0
s(I23
I0
tp1097
F0
s(I22
I1
tp1098
F0
s(I19
I1
tp1099
F0
s(I17
I0
tp1100
F0
s(I13
I0
tp1101
F0.00024740227610094015
ss(I1
I1
tp1102
(dp1103
(I18
I0
tp1104
F0
s(I12
I1
tp1105
F0
s(I9
I1
tp1106
F0
s(I3
I0
tp1107
F0.0015030060120240481
s(I8
I0
tp1108
F0.001002004008016032
s(I2
I1
tp1109
F0.98446893787575152
s(I15
I1
tp1110
F0
s(I14
I0
tp1111
F0.00075150300601202404
s(I19
I0
tp1112
F0.000250501002004008
s(I5
I1
tp1113
F0
s(I18
I1
tp1114
F0
s(I4
I0
tp1115
F0.00050100200400801599
s(I9
I0
tp1116
F0.001002004008016032
s(I8
I1
tp1117
F0
s(I21
I1
tp1118
F0
s(I15
I0
tp1119
F0.000250501002004008
s(I20
I0
tp1120
F0
s(I14
I1
tp1121
F0
s(I11
I1
tp1122
F0
s(I5
I0
tp1123
F0.001002004008016032
s(I10
I0
tp1124
F0.001002004008016032
s(I4
I1
tp1125
F0
s(I1
I1
tp1126
F0
s(I0
I0
tp1127
F0.000250501002004008
s(I21
I0
tp1128
F0.000250501002004008
s(I7
I1
tp1129
F0
s(I20
I1
tp1130
F0
s(I6
I0
tp1131
F0.001002004008016032
s(I17
I1
tp1132
F0
s(I11
I0
tp1133
F0.001002004008016032
s(I16
I0
tp1134
F0.000250501002004008
s(I10
I1
tp1135
F0
s(I23
I1
tp1136
F0
s(I1
I0
tp1137
F0
s(I22
I0
tp1138
F0.000250501002004008
s(I0
I1
tp1139
F0
s(I13
I1
tp1140
F0
s(I7
I0
tp1141
F0.001002004008016032
s(I12
I0
tp1142
F0.00125250501002004
s(I6
I1
tp1143
F0
s(I3
I1
tp1144
F0
s(I16
I1
tp1145
F0
s(I2
I0
tp1146
F0.0022545090180360722
s(I23
I0
tp1147
F0
s(I22
I1
tp1148
F0
s(I19
I1
tp1149
F0
s(I17
I0
tp1150
F0.000250501002004008
s(I13
I0
tp1151
F0.00050100200400801599
ss(I0
I0
tp1152
(dp1153
(I18
I0
tp1154
F0.022281167108753316
s(I12
I1
tp1155
F0
s(I9
I1
tp1156
F0
s(I3
I0
tp1157
F0.011140583554376658
s(I8
I0
tp1158
F0.12546419098143236
s(I2
I1
tp1159
F0
s(I15
I1
tp1160
F0
s(I14
I0
tp1161
F0.023872679045092837
s(I19
I0
tp1162
F0.014854111405835544
s(I5
I1
tp1163
F0
s(I18
I1
tp1164
F0
s(I4
I0
tp1165
F0.010875331564986738
s(I9
I0
tp1166
F0.11856763925729442
s(I8
I1
tp1167
F0
s(I21
I1
tp1168
F0
s(I15
I0
tp1169
F0.02493368700265252
s(I20
I0
tp1170
F0.01220159151193634
s(I14
I1
tp1171
F0
s(I11
I1
tp1172
F0
s(I5
I0
tp1173
F0.019363395225464191
s(I10
I0
tp1174
F0.079045092838196288
s(I4
I1
tp1175
F0
s(I1
I1
tp1176
F0.04880636604774536
s(I0
I0
tp1177
F0.0013262599469496021
s(I21
I0
tp1178
F0.010875331564986738
s(I7
I1
tp1179
F0
s(I20
I1
tp1180
F0
s(I6
I0
tp1181
F0.055172413793103448
s(I17
I1
tp1182
F0
s(I11
I0
tp1183
F0.076127320954907166
s(I16
I0
tp1184
F0.016445623342175066
s(I10
I1
tp1185
F0
s(I23
I1
tp1186
F0
s(I1
I0
tp1187
F0.048541114058355435
s(I22
I0
tp1188
F0.027320954907161802
s(I0
I1
tp1189
F0
s(I13
I1
tp1190
F0
s(I7
I0
tp1191
F0.10371352785145889
s(I12
I0
tp1192
F0.053580901856763924
s(I6
I1
tp1193
F0
s(I3
I1
tp1194
F0
s(I16
I1
tp1195
F0
s(I2
I0
tp1196
F0.019628647214854113
s(I23
I0
tp1197
F0.003183023872679045
s(I22
I1
tp1198
F0
s(I19
I1
tp1199
F0
s(I17
I0
tp1200
F0.043236074270557028
s(I13
I0
tp1201
F0.029442970822281166
ss(I21
I0
tp1202
(dp1203
(I18
I0
tp1204
F0.013406156901688183
s(I12
I1
tp1205
F0
s(I9
I1
tp1206
F0
s(I3
I0
tp1207
F0.0047169811320754715
s(I8
I0
tp1208
F0.079195630585898708
s(I2
I1
tp1209
F0
s(I15
I1
tp1210
F0
s(I14
I0
tp1211
F0.016633565044687191
s(I19
I0
tp1212
F0.0074478649453823239
s(I5
I1
tp1213
F0
s(I18
I1
tp1214
F0
s(I4
I0
tp1215
F0.0027308838133068519
s(I9
I0
tp1216
F0.079940417080436935
s(I8
I1
tp1217
F0
s(I21
I1
tp1218
F0
s(I15
I0
tp1219
F0.016137040714995034
s(I20
I0
tp1220
F0.0076961271102284016
s(I14
I1
tp1221
F0
s(I11
I1
tp1222
F0
s(I5
I0
tp1223
F0.0091857000993048662
s(I10
I0
tp1224
F0.047666335650446874
s(I4
I1
tp1225
F0
s(I1
I1
tp1226
F0
s(I0
I0
tp1227
F0.035004965243296923
s(I21
I0
tp1228
F0.0071996027805362461
s(I7
I1
tp1229
F0
s(I20
I1
tp1230
F0
s(I6
I0
tp1231
F0.029791459781529295
s(I17
I1
tp1232
F0
s(I11
I0
tp1233
F0.046425024826216486
s(I16
I0
tp1234
F0.0099304865938430985
s(I10
I1
tp1235
F0
s(I23
I1
tp1236
F0
s(I1
I0
tp1237
F0.018371400198609732
s(I22
I0
tp1238
F0.21375372393247269
s(I0
I1
tp1239
F0
s(I13
I1
tp1240
F0
s(I7
I0
tp1241
F0.066285998013902683
s(I12
I0
tp1242
F0.033018867924528301
s(I6
I1
tp1243
F0
s(I3
I1
tp1244
F0
s(I16
I1
tp1245
F0
s(I2
I0
tp1246
F0.0067030784508440916
s(I23
I0
tp1247
F0.077209533267130093
s(I22
I1
tp1248
F0.13058589870903675
s(I19
I1
tp1249
F0
s(I17
I0
tp1250
F0.02333664349553128
s(I13
I0
tp1251
F0.017626613704071498
ss(I7
I1
tp1252
(dp1253
(I18
I0
tp1254
F0.0012434717731907485
s(I12
I1
tp1255
F0
s(I9
I1
tp1256
F0
s(I3
I0
tp1257
F0
s(I8
I0
tp1258
F0.023128574981347922
s(I2
I1
tp1259
F0
s(I15
I1
tp1260
F0
s(I14
I0
tp1261
F0.0074608306391444916
s(I19
I0
tp1262
F0.00074608306391444918
s(I5
I1
tp1263
F0
s(I18
I1
tp1264
F0
s(I4
I0
tp1265
F0
s(I9
I0
tp1266
F0.013429495150460085
s(I8
I1
tp1267
F0.92762994280029842
s(I21
I1
tp1268
F0
s(I15
I0
tp1269
F0.0019895548371051978
s(I20
I0
tp1270
F0.00024869435463814973
s(I14
I1
tp1271
F0
s(I11
I1
tp1272
F0
s(I5
I0
tp1273
F0
s(I10
I0
tp1274
F0.0072121362845063413
s(I4
I1
tp1275
F0
s(I1
I1
tp1276
F0
s(I0
I0
tp1277
F0
s(I21
I0
tp1278
F0.00049738870927629945
s(I7
I1
tp1279
F0
s(I20
I1
tp1280
F0
s(I6
I0
tp1281
F0
s(I17
I1
tp1282
F0
s(I11
I0
tp1283
F0.004227804028848545
s(I16
I0
tp1284
F0.00024869435463814973
s(I10
I1
tp1285
F0
s(I23
I1
tp1286
F0
s(I1
I0
tp1287
F0
s(I22
I0
tp1288
F0
s(I0
I1
tp1289
F0
s(I13
I1
tp1290
F0
s(I7
I0
tp1291
F0
s(I12
I0
tp1292
F0.0037304153195722458
s(I6
I1
tp1293
F0
s(I3
I1
tp1294
F0
s(I16
I1
tp1295
F0
s(I2
I0
tp1296
F0
s(I23
I0
tp1297
F0
s(I22
I1
tp1298
F0
s(I19
I1
tp1299
F0
s(I17
I0
tp1300
F0.0037304153195722458
s(I13
I0
tp1301
F0.0044764983834866944
ss(I20
I1
tp1302
(dp1303
(I18
I0
tp1304
F0.00054854635216675812
s(I12
I1
tp1305
F0
s(I9
I1
tp1306
F0
s(I3
I0
tp1307
F0.00054854635216675812
s(I8
I0
tp1308
F0.010422380691168404
s(I2
I1
tp1309
F0
s(I15
I1
tp1310
F0
s(I14
I0
tp1311
F0.0016456390565002743
s(I19
I0
tp1312
F0.00054854635216675812
s(I5
I1
tp1313
F0
s(I18
I1
tp1314
F0
s(I4
I0
tp1315
F0.00054854635216675812
s(I9
I0
tp1316
F0.0082281952825013719
s(I8
I1
tp1317
F0
s(I21
I1
tp1318
F0.87410861217772906
s(I15
I0
tp1319
F0.00054854635216675812
s(I20
I0
tp1320
F0
s(I14
I1
tp1321
F0
s(I11
I1
tp1322
F0
s(I5
I0
tp1323
F0.0013713658804168952
s(I10
I0
tp1324
F0.004662643993417444
s(I4
I1
tp1325
F0
s(I1
I1
tp1326
F0
s(I0
I0
tp1327
F0.0038398244651673065
s(I21
I0
tp1328
F0.050740537575425126
s(I7
I1
tp1329
F0
s(I20
I1
tp1330
F0
s(I6
I0
tp1331
F0.0024684585847504115
s(I17
I1
tp1332
F0
s(I11
I0
tp1333
F0.0030170049369171695
s(I16
I0
tp1334
F0.00027427317608337906
s(I10
I1
tp1335
F0
s(I23
I1
tp1336
F0
s(I1
I0
tp1337
F0.0016456390565002743
s(I22
I0
tp1338
F0.017827756445419639
s(I0
I1
tp1339
F0
s(I13
I1
tp1340
F0
s(I7
I0
tp1341
F0.0019199122325836533
s(I12
I0
tp1342
F0.0024684585847504115
s(I6
I1
tp1343
F0
s(I3
I1
tp1344
F0
s(I16
I1
tp1345
F0
s(I2
I0
tp1346
F0.00082281952825013713
s(I23
I0
tp1347
F0.0098738343390016459
s(I22
I1
tp1348
F0
s(I19
I1
tp1349
F0
s(I17
I0
tp1350
F0.0013713658804168952
s(I13
I0
tp1351
F0.00054854635216675812
ss(I6
I0
tp1352
(dp1353
(I18
I0
tp1354
F0.027175404886082898
s(I12
I1
tp1355
F0
s(I9
I1
tp1356
F0
s(I3
I0
tp1357
F0.00054899807850672519
s(I8
I0
tp1358
F0.14932747735382926
s(I2
I1
tp1359
F0
s(I15
I1
tp1360
F0
s(I14
I0
tp1361
F0.035410376063683774
s(I19
I0
tp1362
F0.019214932747735385
s(I5
I1
tp1363
F0
s(I18
I1
tp1364
F0
s(I4
I0
tp1365
F0.00027449903925336259
s(I9
I0
tp1366
F0.13862201482294811
s(I8
I1
tp1367
F0
s(I21
I1
tp1368
F0
s(I15
I0
tp1369
F0.0315673895141367
s(I20
I0
tp1370
F0.015097447158934943
s(I14
I1
tp1371
F0
s(I11
I1
tp1372
F0
s(I5
I0
tp1373
F0
s(I10
I0
tp1374
F0.096074663738676916
s(I4
I1
tp1375
F0
s(I1
I1
tp1376
F0
s(I0
I0
tp1377
F0.0016469942355201758
s(I21
I0
tp1378
F0.012626955805654681
s(I7
I1
tp1379
F0.022508921218775735
s(I20
I1
tp1380
F0
s(I6
I0
tp1381
F0.0027449903925336259
s(I17
I1
tp1382
F0
s(I11
I0
tp1383
F0.094976667581663468
s(I16
I0
tp1384
F0.02003842986549547
s(I10
I1
tp1385
F0
s(I23
I1
tp1386
F0
s(I1
I0
tp1387
F0.001372495196266813
s(I22
I0
tp1388
F0.030194894317869887
s(I0
I1
tp1389
F0
s(I13
I1
tp1390
F0
s(I7
I0
tp1391
F0.13615152346966786
s(I12
I0
tp1392
F0.070271754048860824
s(I6
I1
tp1393
F0
s(I3
I1
tp1394
F0
s(I16
I1
tp1395
F0
s(I2
I0
tp1396
F0
s(I23
I0
tp1397
F0.0038429865495470767
s(I22
I1
tp1398
F0
s(I19
I1
tp1399
F0
s(I17
I0
tp1400
F0.05160581937963217
s(I13
I0
tp1401
F0.038704364534724131
ss(I17
I1
tp1402
(dp1403
(I18
I0
tp1404
F0.061367937280346042
s(I12
I1
tp1405
F0
s(I9
I1
tp1406
F0
s(I3
I0
tp1407
F0.0002703433360367667
s(I8
I0
tp1408
F0.0037848067045147338
s(I2
I1
tp1409
F0
s(I15
I1
tp1410
F0
s(I14
I0
tp1411
F0.0018924033522573669
s(I19
I0
tp1412
F0.030819140308191405
s(I5
I1
tp1413
F0
s(I18
I1
tp1414
F0.84914841849148415
s(I4
I0
tp1415
F0
s(I9
I0
tp1416
F0.0021627466882941336
s(I8
I1
tp1417
F0
s(I21
I1
tp1418
F0
s(I15
I0
tp1419
F0.0002703433360367667
s(I20
I0
tp1420
F0.016490943498242767
s(I14
I1
tp1421
F0
s(I11
I1
tp1422
F0
s(I5
I0
tp1423
F0
s(I10
I0
tp1424
F0.0016220600162206002
s(I4
I1
tp1425
F0
s(I1
I1
tp1426
F0
s(I0
I0
tp1427
F0.0018924033522573669
s(I21
I0
tp1428
F0.010543390105433901
s(I7
I1
tp1429
F0
s(I20
I1
tp1430
F0
s(I6
I0
tp1431
F0.0008110300081103001
s(I17
I1
tp1432
F0
s(I11
I0
tp1433
F0.0010813733441470668
s(I16
I0
tp1434
F0
s(I10
I1
tp1435
F0
s(I23
I1
tp1436
F0
s(I1
I0
tp1437
F0.0010813733441470668
s(I22
I0
tp1438
F0.0059475533928088674
s(I0
I1
tp1439
F0
s(I13
I1
tp1440
F0
s(I7
I0
tp1441
F0.0043254933765882672
s(I12
I0
tp1442
F0.0018924033522573669
s(I6
I1
tp1443
F0
s(I3
I1
tp1444
F0
s(I16
I1
tp1445
F0
s(I2
I0
tp1446
F0
s(I23
I0
tp1447
F0.0035144633684779671
s(I22
I1
tp1448
F0
s(I19
I1
tp1449
F0
s(I17
I0
tp1450
F0.0005406866720735334
s(I13
I0
tp1451
F0.0005406866720735334
ss(I11
I0
tp1452
(dp1453
(I18
I0
tp1454
F0.047355163727959698
s(I12
I1
tp1455
F0.091183879093198986
s(I9
I1
tp1456
F0
s(I3
I0
tp1457
F0.00050377833753148613
s(I8
I0
tp1458
F0.011083123425692695
s(I2
I1
tp1459
F0
s(I15
I1
tp1460
F0
s(I14
I0
tp1461
F0.097732997481108308
s(I19
I0
tp1462
F0.035768261964735516
s(I5
I1
tp1463
F0
s(I18
I1
tp1464
F0
s(I4
I0
tp1465
F0.00025188916876574307
s(I9
I0
tp1466
F0.019395465994962217
s(I8
I1
tp1467
F0
s(I21
I1
tp1468
F0
s(I15
I0
tp1469
F0.06397984886649874
s(I20
I0
tp1470
F0.023929471032745592
s(I14
I1
tp1471
F0
s(I11
I1
tp1472
F0
s(I5
I0
tp1473
F0
s(I10
I0
tp1474
F0.00982367758186398
s(I4
I1
tp1475
F0
s(I1
I1
tp1476
F0
s(I0
I0
tp1477
F0.003778337531486146
s(I21
I0
tp1478
F0.020906801007556677
s(I7
I1
tp1479
F0
s(I20
I1
tp1480
F0
s(I6
I0
tp1481
F0.0030226700251889168
s(I17
I1
tp1482
F0
s(I11
I0
tp1483
F0.020403022670025188
s(I16
I0
tp1484
F0.045088161209068008
s(I10
I1
tp1485
F0
s(I23
I1
tp1486
F0
s(I1
I0
tp1487
F0.0020151133501259445
s(I22
I0
tp1488
F0.035516372795969774
s(I0
I1
tp1489
F0
s(I13
I1
tp1490
F0
s(I7
I0
tp1491
F0.010327455919395465
s(I12
I0
tp1492
F0.23501259445843828
s(I6
I1
tp1493
F0
s(I3
I1
tp1494
F0
s(I16
I1
tp1495
F0
s(I2
I0
tp1496
F0
s(I23
I0
tp1497
F0.0050377833753148613
s(I22
I1
tp1498
F0
s(I19
I1
tp1499
F0
s(I17
I0
tp1500
F0.088664987405541559
s(I13
I0
tp1501
F0.12921914357682621
ss(I16
I0
tp1502
(dp1503
(I18
I0
tp1504
F0.15172413793103448
s(I12
I1
tp1505
F0
s(I9
I1
tp1506
F0
s(I3
I0
tp1507
F0.00076628352490421458
s(I8
I0
tp1508
F0.023499361430395913
s(I2
I1
tp1509
F0
s(I15
I1
tp1510
F0
s(I14
I0
tp1511
F0.0048531289910600257
s(I19
I0
tp1512
F0.11264367816091954
s(I5
I1
tp1513
F0
s(I18
I1
tp1514
F0
s(I4
I0
tp1515
F0.0010217113665389529
s(I9
I0
tp1516
F0.031162196679438058
s(I8
I1
tp1517
F0
s(I21
I1
tp1518
F0
s(I15
I0
tp1519
F0.009450830140485313
s(I20
I0
tp1520
F0.068199233716475099
s(I14
I1
tp1521
F0
s(I11
I1
tp1522
F0
s(I5
I0
tp1523
F0.0022988505747126436
s(I10
I0
tp1524
F0.016347381864623246
s(I4
I1
tp1525
F0
s(I1
I1
tp1526
F0
s(I0
I0
tp1527
F0.0089399744572158362
s(I21
I0
tp1528
F0.053895274584929757
s(I7
I1
tp1529
F0
s(I20
I1
tp1530
F0
s(I6
I0
tp1531
F0.0081736909323116228
s(I17
I1
tp1532
F0.093231162196679443
s(I11
I0
tp1533
F0.024776500638569603
s(I16
I0
tp1534
F0.0045977011494252873
s(I10
I1
tp1535
F0
s(I23
I1
tp1536
F0
s(I1
I0
tp1537
F0.0038314176245210726
s(I22
I0
tp1538
F0.054150702426564494
s(I0
I1
tp1539
F0
s(I13
I1
tp1540
F0
s(I7
I0
tp1541
F0.019923371647509579
s(I12
I0
tp1542
F0.014303959131545339
s(I6
I1
tp1543
F0
s(I3
I1
tp1544
F0
s(I16
I1
tp1545
F0
s(I2
I0
tp1546
F0.0010217113665389529
s(I23
I0
tp1547
F0.01532567049808429
s(I22
I1
tp1548
F0
s(I19
I1
tp1549
F0
s(I17
I0
tp1550
F0.26717752234993614
s(I13
I0
tp1551
F0.0086845466155810978
ss(I10
I1
tp1552
(dp1553
(I18
I0
tp1554
F0.0021019442984760903
s(I12
I1
tp1555
F0
s(I9
I1
tp1556
F0
s(I3
I0
tp1557
F0
s(I8
I0
tp1558
F0.00026274303730951129
s(I2
I1
tp1559
F0
s(I15
I1
tp1560
F0
s(I14
I0
tp1561
F0.0068313189700472936
s(I19
I0
tp1562
F0.0018392012611665792
s(I5
I1
tp1563
F0
s(I18
I1
tp1564
F0
s(I4
I0
tp1565
F0
s(I9
I0
tp1566
F0.00026274303730951129
s(I8
I1
tp1567
F0
s(I21
I1
tp1568
F0
s(I15
I0
tp1569
F0.0044666316342616922
s(I20
I0
tp1570
F0.0013137151865475565
s(I14
I1
tp1571
F0
s(I11
I1
tp1572
F0.88491854965843408
s(I5
I0
tp1573
F0
s(I10
I0
tp1574
F0
s(I4
I1
tp1575
F0
s(I1
I1
tp1576
F0
s(I0
I0
tp1577
F0.00026274303730951129
s(I21
I0
tp1578
F0.0023646873357856019
s(I7
I1
tp1579
F0
s(I20
I1
tp1580
F0
s(I6
I0
tp1581
F0
s(I17
I1
tp1582
F0
s(I11
I0
tp1583
F0.052548607461902257
s(I16
I0
tp1584
F0.0049921177088807145
s(I10
I1
tp1585
F0
s(I23
I1
tp1586
F0
s(I1
I0
tp1587
F0
s(I22
I0
tp1588
F0.0013137151865475565
s(I0
I1
tp1589
F0
s(I13
I1
tp1590
F0
s(I7
I0
tp1591
F0
s(I12
I0
tp1592
F0.019180241723594324
s(I6
I1
tp1593
F0
s(I3
I1
tp1594
F0
s(I16
I1
tp1595
F0
s(I2
I0
tp1596
F0
s(I23
I0
tp1597
F0
s(I22
I1
tp1598
F0
s(I19
I1
tp1599
F0
s(I17
I0
tp1600
F0.0060430898581187598
s(I13
I0
tp1601
F0.011297950604308986
ss(I23
I1
tp1602
(dp1603
(I18
I0
tp1604
F0.000523149359142035
s(I12
I1
tp1605
F0
s(I9
I1
tp1606
F0
s(I3
I0
tp1607
F0.0013078733978550876
s(I8
I0
tp1608
F0.00209259743656814
s(I2
I1
tp1609
F0
s(I15
I1
tp1610
F0
s(I14
I0
tp1611
F0.0018310227569971226
s(I19
I0
tp1612
F0.00078472403871305261
s(I5
I1
tp1613
F0
s(I18
I1
tp1614
F0
s(I4
I0
tp1615
F0.00104629871828407
s(I9
I0
tp1616
F0.0039236201935652628
s(I8
I1
tp1617
F0
s(I21
I1
tp1618
F0
s(I15
I0
tp1619
F0.0013078733978550876
s(I20
I0
tp1620
F0.0002615746795710175
s(I14
I1
tp1621
F0
s(I11
I1
tp1622
F0
s(I5
I0
tp1623
F0.0013078733978550876
s(I10
I0
tp1624
F0.0026157467957101752
s(I4
I1
tp1625
F0
s(I1
I1
tp1626
F0
s(I0
I0
tp1627
F0.014648182055976981
s(I21
I0
tp1628
F0.000523149359142035
s(I7
I1
tp1629
F0
s(I20
I1
tp1630
F0
s(I6
I0
tp1631
F0.0039236201935652628
s(I17
I1
tp1632
F0
s(I11
I0
tp1633
F0.0047083442322783152
s(I16
I0
tp1634
F0.0013078733978550876
s(I10
I1
tp1635
F0
s(I23
I1
tp1636
F0
s(I1
I0
tp1637
F0.0047083442322783152
s(I22
I0
tp1638
F0
s(I0
I1
tp1639
F0.93957624901909498
s(I13
I1
tp1640
F0
s(I7
I0
tp1641
F0.0044467695527072981
s(I12
I0
tp1642
F0.0036620455139942452
s(I6
I1
tp1643
F0
s(I3
I1
tp1644
F0
s(I16
I1
tp1645
F0
s(I2
I0
tp1646
F0.00209259743656814
s(I23
I0
tp1647
F0.0002615746795710175
s(I22
I1
tp1648
F0
s(I19
I1
tp1649
F0
s(I17
I0
tp1650
F0.0018310227569971226
s(I13
I0
tp1651
F0.0013078733978550876
ss(I1
I0
tp1652
(dp1653
(I18
I0
tp1654
F0.022923408845738943
s(I12
I1
tp1655
F0
s(I9
I1
tp1656
F0
s(I3
I0
tp1657
F0.016181229773462782
s(I8
I0
tp1658
F0.12971952535059331
s(I2
I1
tp1659
F0.028047464940668825
s(I15
I1
tp1660
F0
s(I14
I0
tp1661
F0.026429341963322545
s(I19
I0
tp1662
F0.015911542610571736
s(I5
I1
tp1663
F0
s(I18
I1
tp1664
F0
s(I4
I0
tp1665
F0.014293419633225458
s(I9
I0
tp1666
F0.12540453074433658
s(I8
I1
tp1667
F0
s(I21
I1
tp1668
F0
s(I15
I0
tp1669
F0.02696871628910464
s(I20
I0
tp1670
F0.01348435814455232
s(I14
I1
tp1671
F0
s(I11
I1
tp1672
F0
s(I5
I0
tp1673
F0.021305285868392664
s(I10
I0
tp1674
F0.083603020496224381
s(I4
I1
tp1675
F0
s(I1
I1
tp1676
F0
s(I0
I0
tp1677
F0.001348435814455232
s(I21
I0
tp1678
F0.011057173678532902
s(I7
I1
tp1679
F0
s(I20
I1
tp1680
F0
s(I6
I0
tp1681
F0.057443365695792878
s(I17
I1
tp1682
F0
s(I11
I0
tp1683
F0.081984897518878108
s(I16
I0
tp1684
F0.017529665587918016
s(I10
I1
tp1685
F0
s(I23
I1
tp1686
F0
s(I1
I0
tp1687
F0.001348435814455232
s(I22
I0
tp1688
F0.029126213592233011
s(I0
I1
tp1689
F0
s(I13
I1
tp1690
F0
s(I7
I0
tp1691
F0.11030204962243798
s(I12
I0
tp1692
F0.058522114347357067
s(I6
I1
tp1693
F0
s(I3
I1
tp1694
F0
s(I16
I1
tp1695
F0
s(I2
I0
tp1696
F0.025889967637540454
s(I23
I0
tp1697
F0.0037756202804746495
s(I22
I1
tp1698
F0
s(I19
I1
tp1699
F0
s(I17
I0
tp1700
F0.045577130528586841
s(I13
I0
tp1701
F0.031823085221143473
ss(I22
I0
tp1702
(dp1703
(I18
I0
tp1704
F0.01567317574511819
s(I12
I1
tp1705
F0
s(I9
I1
tp1706
F0
s(I3
I0
tp1707
F0.0059095580678314493
s(I8
I0
tp1708
F0.099691675231243573
s(I2
I1
tp1709
F0
s(I15
I1
tp1710
F0
s(I14
I0
tp1711
F0.019527235354573486
s(I19
I0
tp1712
F0.009249743062692703
s(I5
I1
tp1713
F0
s(I18
I1
tp1714
F0
s(I4
I0
tp1715
F0.0046248715313463515
s(I9
I0
tp1716
F0.096608427543679348
s(I8
I1
tp1717
F0
s(I21
I1
tp1718
F0
s(I15
I0
tp1719
F0.018499486125385406
s(I20
I0
tp1720
F0.0097636176772867428
s(I14
I1
tp1721
F0
s(I11
I1
tp1722
F0
s(I5
I0
tp1723
F0.012589928057553957
s(I10
I0
tp1724
F0.061151079136690649
s(I4
I1
tp1725
F0
s(I1
I1
tp1726
F0
s(I0
I0
tp1727
F0.049588900308324767
s(I21
I0
tp1728
F0.008478931140801645
s(I7
I1
tp1729
F0
s(I20
I1
tp1730
F0
s(I6
I0
tp1731
F0.039311408016443991
s(I17
I1
tp1732
F0
s(I11
I0
tp1733
F0.055241521068859198
s(I16
I0
tp1734
F0.012846865364850977
s(I10
I1
tp1735
F0
s(I23
I1
tp1736
F0.10354573484069887
s(I1
I0
tp1737
F0.025693730729701953
s(I22
I0
tp1738
F0.024152106885919837
s(I0
I1
tp1739
F0
s(I13
I1
tp1740
F0
s(I7
I0
tp1741
F0.082476875642343267
s(I12
I0
tp1742
F0.038797533401849951
s(I6
I1
tp1743
F0
s(I3
I1
tp1744
F0
s(I16
I1
tp1745
F0
s(I2
I0
tp1746
F0.0097636176772867428
s(I23
I0
tp1747
F0.14362795477903392
s(I22
I1
tp1748
F0
s(I19
I1
tp1749
F0
s(I17
I0
tp1750
F0.030575539568345324
s(I13
I0
tp1751
F0.022610483042137718
ss(I0
I1
tp1752
(dp1753
(I18
I0
tp1754
F0
s(I12
I1
tp1755
F0
s(I9
I1
tp1756
F0
s(I3
I0
tp1757
F0.00076335877862595419
s(I8
I0
tp1758
F0.0012722646310432571
s(I2
I1
tp1759
F0
s(I15
I1
tp1760
F0
s(I14
I0
tp1761
F0.0015267175572519084
s(I19
I0
tp1762
F0.00050890585241730279
s(I5
I1
tp1763
F0
s(I18
I1
tp1764
F0
s(I4
I0
tp1765
F0.00076335877862595419
s(I9
I0
tp1766
F0.0017811704834605599
s(I8
I1
tp1767
F0
s(I21
I1
tp1768
F0
s(I15
I0
tp1769
F0.0010178117048346056
s(I20
I0
tp1770
F0.00050890585241730279
s(I14
I1
tp1771
F0
s(I11
I1
tp1772
F0
s(I5
I0
tp1773
F0.00050890585241730279
s(I10
I0
tp1774
F0.0012722646310432571
s(I4
I1
tp1775
F0
s(I1
I1
tp1776
F0.96895674300254453
s(I0
I0
tp1777
F0
s(I21
I0
tp1778
F0
s(I7
I1
tp1779
F0
s(I20
I1
tp1780
F0
s(I6
I0
tp1781
F0.0010178117048346056
s(I17
I1
tp1782
F0
s(I11
I0
tp1783
F0.0015267175572519084
s(I16
I0
tp1784
F0.0002544529262086514
s(I10
I1
tp1785
F0
s(I23
I1
tp1786
F0
s(I1
I0
tp1787
F0.0086513994910941468
s(I22
I0
tp1788
F0.0010178117048346056
s(I0
I1
tp1789
F0
s(I13
I1
tp1790
F0
s(I7
I0
tp1791
F0.0027989821882951653
s(I12
I0
tp1792
F0.0020356234096692112
s(I6
I1
tp1793
F0
s(I3
I1
tp1794
F0
s(I16
I1
tp1795
F0
s(I2
I0
tp1796
F0.0022900763358778627
s(I23
I0
tp1797
F0.0002544529262086514
s(I22
I1
tp1798
F0
s(I19
I1
tp1799
F0
s(I17
I0
tp1800
F0.0002544529262086514
s(I13
I0
tp1801
F0.0010178117048346056
ss(I13
I1
tp1802
(dp1803
(I18
I0
tp1804
F0.0071077091306724982
s(I12
I1
tp1805
F0
s(I9
I1
tp1806
F0
s(I3
I0
tp1807
F0
s(I8
I0
tp1808
F0.0016402405686167304
s(I2
I1
tp1809
F0
s(I15
I1
tp1810
F0
s(I14
I0
tp1811
F0.034718425369054125
s(I19
I0
tp1812
F0.0038272279934390375
s(I5
I1
tp1813
F0
s(I18
I1
tp1814
F0
s(I4
I0
tp1815
F0
s(I9
I0
tp1816
F0.00082012028430836518
s(I8
I1
tp1817
F0
s(I21
I1
tp1818
F0
s(I15
I0
tp1819
F0.022416621104428651
s(I20
I0
tp1820
F0.0038272279934390375
s(I14
I1
tp1821
F0.89393110989611813
s(I11
I1
tp1822
F0
s(I5
I0
tp1823
F0.00027337342810278839
s(I10
I0
tp1824
F0.00027337342810278839
s(I4
I1
tp1825
F0
s(I1
I1
tp1826
F0
s(I0
I0
tp1827
F0.0010934937124111536
s(I21
I0
tp1828
F0.0032804811372334607
s(I7
I1
tp1829
F0
s(I20
I1
tp1830
F0
s(I6
I0
tp1831
F0.00027337342810278839
s(I17
I1
tp1832
F0
s(I11
I0
tp1833
F0
s(I16
I0
tp1834
F0.01558228540185894
s(I10
I1
tp1835
F0
s(I23
I1
tp1836
F0
s(I1
I0
tp1837
F0.00054674685620557679
s(I22
I0
tp1838
F0.001366867140513942
s(I0
I1
tp1839
F0
s(I13
I1
tp1840
F0
s(I7
I0
tp1841
F0.00054674685620557679
s(I12
I0
tp1842
F0
s(I6
I1
tp1843
F0
s(I3
I1
tp1844
F0
s(I16
I1
tp1845
F0
s(I2
I0
tp1846
F0
s(I23
I0
tp1847
F0
s(I22
I1
tp1848
F0
s(I19
I1
tp1849
F0
s(I17
I0
tp1850
F0.0084745762711864406
s(I13
I0
tp1851
F0
ss(I7
I0
tp1852
(dp1853
(I18
I0
tp1854
F0.029355803207393314
s(I12
I1
tp1855
F0
s(I9
I1
tp1856
F0
s(I3
I0
tp1857
F0.00054362598532209838
s(I8
I0
tp1858
F0.18809459092144604
s(I2
I1
tp1859
F0
s(I15
I1
tp1860
F0
s(I14
I0
tp1861
F0.040500135906496329
s(I19
I0
tp1862
F0.020114161456917641
s(I5
I1
tp1863
F0
s(I18
I1
tp1864
F0
s(I4
I0
tp1865
F0.00027181299266104919
s(I9
I0
tp1866
F0.15846697472139168
s(I8
I1
tp1867
F0.055993476488176132
s(I21
I1
tp1868
F0
s(I15
I0
tp1869
F0.033704811089970102
s(I20
I0
tp1870
F0.015765153574340853
s(I14
I1
tp1871
F0
s(I11
I1
tp1872
F0
s(I5
I0
tp1873
F0
s(I10
I0
tp1874
F0.10709431910845338
s(I4
I1
tp1875
F0
s(I1
I1
tp1876
F0
s(I0
I0
tp1877
F0.0021745039412883935
s(I21
I0
tp1878
F0.012503397662408263
s(I7
I1
tp1879
F0
s(I20
I1
tp1880
F0
s(I6
I0
tp1881
F0.002718129926610492
s(I17
I1
tp1882
F0
s(I11
I0
tp1883
F0.099211742321282964
s(I16
I0
tp1884
F0.022016852405544986
s(I10
I1
tp1885
F0
s(I23
I1
tp1886
F0
s(I1
I0
tp1887
F0.001359064963305246
s(I22
I0
tp1888
F0.030714868170698559
s(I0
I1
tp1889
F0
s(I13
I1
tp1890
F0
s(I7
I0
tp1891
F0.0081543897798314752
s(I12
I0
tp1892
F0.071486817069855935
s(I6
I1
tp1893
F0
s(I3
I1
tp1894
F0
s(I16
I1
tp1895
F0
s(I2
I0
tp1896
F0
s(I23
I0
tp1897
F0.0038053818972546886
s(I22
I1
tp1898
F0
s(I19
I1
tp1899
F0
s(I17
I0
tp1900
F0.053547159554226689
s(I13
I0
tp1901
F0.042402826855123678
ss(I12
I0
tp1902
(dp1903
(I18
I0
tp1904
F0.058940562049241481
s(I12
I1
tp1905
F0
s(I9
I1
tp1906
F0
s(I3
I0
tp1907
F0.00049738870927629945
s(I8
I0
tp1908
F0.012932106441183784
s(I2
I1
tp1909
F0
s(I15
I1
tp1910
F0
s(I14
I0
tp1911
F0.13553842327779159
s(I19
I0
tp1912
F0.048495399154439192
s(I5
I1
tp1913
F0
s(I18
I1
tp1914
F0
s(I4
I0
tp1915
F0.00024869435463814973
s(I9
I0
tp1916
F0.021636408853519026
s(I8
I1
tp1917
F0
s(I21
I1
tp1918
F0
s(I15
I0
tp1919
F0.092016911216115396
s(I20
I0
tp1920
F0.027853767719472768
s(I14
I1
tp1921
F0
s(I11
I1
tp1922
F0
s(I5
I0
tp1923
F0.00024869435463814973
s(I10
I0
tp1924
F0.010445162894802289
s(I4
I1
tp1925
F0
s(I1
I1
tp1926
F0
s(I0
I0
tp1927
F0.004227804028848545
s(I21
I0
tp1928
F0.024123352399900523
s(I7
I1
tp1929
F0
s(I20
I1
tp1930
F0
s(I6
I0
tp1931
F0.004227804028848545
s(I17
I1
tp1932
F0
s(I11
I0
tp1933
F0.020890325789604577
s(I16
I0
tp1934
F0.05943795075851778
s(I10
I1
tp1935
F0
s(I23
I1
tp1936
F0
s(I1
I0
tp1937
F0.002486943546381497
s(I22
I0
tp1938
F0.037304153195722459
s(I0
I1
tp1939
F0
s(I13
I1
tp1940
F0.098980353145983579
s(I7
I0
tp1941
F0.012434717731907486
s(I12
I0
tp1942
F0.010693857249440438
s(I6
I1
tp1943
F0
s(I3
I1
tp1944
F0
s(I16
I1
tp1945
F0
s(I2
I0
tp1946
F0
s(I23
I0
tp1947
F0.0064660532205918922
s(I22
I1
tp1948
F0
s(I19
I1
tp1949
F0
s(I17
I0
tp1950
F0.10295946282019398
s(I13
I0
tp1951
F0.20691370305894055
ss(I6
I1
tp1952
(dp1953
(I18
I0
tp1954
F0.0007394626571358146
s(I12
I1
tp1955
F0
s(I9
I1
tp1956
F0
s(I3
I0
tp1957
F0
s(I8
I0
tp1958
F0.0044367759428148882
s(I2
I1
tp1959
F0
s(I15
I1
tp1960
F0
s(I14
I0
tp1961
F0.0017254128666502342
s(I19
I0
tp1962
F0
s(I5
I1
tp1963
F0
s(I18
I1
tp1964
F0
s(I4
I0
tp1965
F0
s(I9
I0
tp1966
F0.0039438008380576779
s(I8
I1
tp1967
F0
s(I21
I1
tp1968
F0
s(I15
I0
tp1969
F0.0012324377618930244
s(I20
I0
tp1970
F0
s(I14
I1
tp1971
F0
s(I11
I1
tp1972
F0
s(I5
I0
tp1973
F0
s(I10
I0
tp1974
F0.0017254128666502342
s(I4
I1
tp1975
F0
s(I1
I1
tp1976
F0
s(I0
I0
tp1977
F0
s(I21
I0
tp1978
F0
s(I7
I1
tp1979
F0.97091446881932464
s(I20
I1
tp1980
F0
s(I6
I0
tp1981
F0
s(I17
I1
tp1982
F0
s(I11
I0
tp1983
F0.00098595020951441946
s(I16
I0
tp1984
F0.00049297510475720973
s(I10
I1
tp1985
F0
s(I23
I1
tp1986
F0
s(I1
I0
tp1987
F0
s(I22
I0
tp1988
F0
s(I0
I1
tp1989
F0
s(I13
I1
tp1990
F0
s(I7
I0
tp1991
F0.010845452304658615
s(I12
I0
tp1992
F0.0007394626571358146
s(I6
I1
tp1993
F0
s(I3
I1
tp1994
F0
s(I16
I1
tp1995
F0
s(I2
I0
tp1996
F0
s(I23
I0
tp1997
F0
s(I22
I1
tp1998
F0
s(I19
I1
tp1999
F0
s(I17
I0
tp2000
F0.0007394626571358146
s(I13
I0
tp2001
F0.0014789253142716292
ss(I3
I1
tp2002
(dp2003
(I18
I0
tp2004
F0
s(I12
I1
tp2005
F0
s(I9
I1
tp2006
F0
s(I3
I0
tp2007
F0
s(I8
I0
tp2008
F0
s(I2
I1
tp2009
F0
s(I15
I1
tp2010
F0
s(I14
I0
tp2011
F0.00049492699826775548
s(I19
I0
tp2012
F0
s(I5
I1
tp2013
F0
s(I18
I1
tp2014
F0
s(I4
I0
tp2015
F0.00049492699826775548
s(I9
I0
tp2016
F0.00074239049740163323
s(I8
I1
tp2017
F0
s(I21
I1
tp2018
F0
s(I15
I0
tp2019
F0.00049492699826775548
s(I20
I0
tp2020
F0
s(I14
I1
tp2021
F0
s(I11
I1
tp2022
F0
s(I5
I0
tp2023
F0.00024746349913387774
s(I10
I0
tp2024
F0.00024746349913387774
s(I4
I1
tp2025
F0.99480326651818862
s(I1
I1
tp2026
F0
s(I0
I0
tp2027
F0
s(I21
I0
tp2028
F0
s(I7
I1
tp2029
F0
s(I20
I1
tp2030
F0
s(I6
I0
tp2031
F0.00024746349913387774
s(I17
I1
tp2032
F0
s(I11
I0
tp2033
F0.00074239049740163323
s(I16
I0
tp2034
F0
s(I10
I1
tp2035
F0
s(I23
I1
tp2036
F0
s(I1
I0
tp2037
F0
s(I22
I0
tp2038
F0
s(I0
I1
tp2039
F0
s(I13
I1
tp2040
F0
s(I7
I0
tp2041
F0
s(I12
I0
tp2042
F0.00074239049740163323
s(I6
I1
tp2043
F0
s(I3
I1
tp2044
F0
s(I16
I1
tp2045
F0
s(I2
I0
tp2046
F0
s(I23
I0
tp2047
F0
s(I22
I1
tp2048
F0
s(I19
I1
tp2049
F0
s(I17
I0
tp2050
F0
s(I13
I0
tp2051
F0.00074239049740163323
ss(I16
I1
tp2052
(dp2053
(I18
I0
tp2054
F0.024306472919418759
s(I12
I1
tp2055
F0
s(I9
I1
tp2056
F0
s(I3
I0
tp2057
F0.0002642007926023778
s(I8
I0
tp2058
F0.0018494055482166448
s(I2
I1
tp2059
F0
s(I15
I1
tp2060
F0
s(I14
I0
tp2061
F0
s(I19
I0
tp2062
F0.0166446499339498
s(I5
I1
tp2063
F0
s(I18
I1
tp2064
F0
s(I4
I0
tp2065
F0
s(I9
I0
tp2066
F0.0015852047556142669
s(I8
I1
tp2067
F0
s(I21
I1
tp2068
F0
s(I15
I0
tp2069
F0.0005284015852047556
s(I20
I0
tp2070
F0.011096433289299868
s(I14
I1
tp2071
F0
s(I11
I1
tp2072
F0
s(I5
I0
tp2073
F0
s(I10
I0
tp2074
F0.001321003963011889
s(I4
I1
tp2075
F0
s(I1
I1
tp2076
F0
s(I0
I0
tp2077
F0.0010568031704095112
s(I21
I0
tp2078
F0.0060766182298546897
s(I7
I1
tp2079
F0
s(I20
I1
tp2080
F0
s(I6
I0
tp2081
F0.0002642007926023778
s(I17
I1
tp2082
F0.88084544253632757
s(I11
I0
tp2083
F0.001321003963011889
s(I16
I0
tp2084
F0.0002642007926023778
s(I10
I1
tp2085
F0
s(I23
I1
tp2086
F0
s(I1
I0
tp2087
F0.0002642007926023778
s(I22
I0
tp2088
F0.0018494055482166448
s(I0
I1
tp2089
F0
s(I13
I1
tp2090
F0
s(I7
I0
tp2091
F0.0015852047556142669
s(I12
I0
tp2092
F0.0005284015852047556
s(I6
I1
tp2093
F0
s(I3
I1
tp2094
F0
s(I16
I1
tp2095
F0
s(I2
I0
tp2096
F0
s(I23
I0
tp2097
F0.0018494055482166448
s(I22
I1
tp2098
F0
s(I19
I1
tp2099
F0
s(I17
I0
tp2100
F0.045706737120211359
s(I13
I0
tp2101
F0.00079260237780713345
ss(I2
I0
tp2102
(dp2103
(I18
I0
tp2104
F0.023458810692853247
s(I12
I1
tp2105
F0
s(I9
I1
tp2106
F0
s(I3
I0
tp2107
F0.021276595744680851
s(I8
I0
tp2108
F0.13284233496999454
s(I2
I1
tp2109
F0
s(I15
I1
tp2110
F0
s(I14
I0
tp2111
F0.028914348063284235
s(I19
I0
tp2112
F0.01718494271685761
s(I5
I1
tp2113
F0
s(I18
I1
tp2114
F0
s(I4
I0
tp2115
F0.017457719585379158
s(I9
I0
tp2116
F0.12875068194217129
s(I8
I1
tp2117
F0
s(I21
I1
tp2118
F0
s(I15
I0
tp2119
F0.028368794326241134
s(I20
I0
tp2120
F0.013638843426077468
s(I14
I1
tp2121
F0
s(I11
I1
tp2122
F0
s(I5
I0
tp2123
F0.024004364429896344
s(I10
I0
tp2124
F0.087015821058374243
s(I4
I1
tp2125
F0
s(I1
I1
tp2126
F0
s(I0
I0
tp2127
F0.0016366612111292963
s(I21
I0
tp2128
F0.011456628477905073
s(I7
I1
tp2129
F0
s(I20
I1
tp2130
F0
s(I6
I0
tp2131
F0.059465357337697762
s(I17
I1
tp2132
F0
s(I11
I0
tp2133
F0.0856519367157665
s(I16
I0
tp2134
F0.018548827059465357
s(I10
I1
tp2135
F0
s(I23
I1
tp2136
F0
s(I1
I0
tp2137
F0.001363884342607747
s(I22
I0
tp2138
F0.029732678668848881
s(I0
I1
tp2139
F0
s(I13
I1
tp2140
F0
s(I7
I0
tp2141
F0.11292962356792144
s(I12
I0
tp2142
F0.061647572285870159
s(I6
I1
tp2143
F0
s(I3
I1
tp2144
F0.010911074740861976
s(I16
I1
tp2145
F0
s(I2
I0
tp2146
F0
s(I23
I0
tp2147
F0.0038188761593016913
s(I22
I1
tp2148
F0
s(I19
I1
tp2149
F0
s(I17
I0
tp2150
F0.047190398254228043
s(I13
I0
tp2151
F0.032733224222585927
ss(I23
I0
tp2152
(dp2153
(I18
I0
tp2154
F0.019592268996558113
s(I12
I1
tp2155
F0
s(I9
I1
tp2156
F0
s(I3
I0
tp2157
F0.0079428117553613977
s(I8
I0
tp2158
F0.11887741593857559
s(I2
I1
tp2159
F0
s(I15
I1
tp2160
F0
s(I14
I0
tp2161
F0.021180831347630394
s(I19
I0
tp2162
F0.011384696849351337
s(I5
I1
tp2163
F0
s(I18
I1
tp2164
F0
s(I4
I0
tp2165
F0.0076780513635160176
s(I9
I0
tp2166
F0.10987556261583267
s(I8
I1
tp2167
F0
s(I21
I1
tp2168
F0
s(I15
I0
tp2169
F0.022239872915011914
s(I20
I0
tp2170
F0.011384696849351337
s(I14
I1
tp2171
F0
s(I11
I1
tp2172
F0
s(I5
I0
tp2173
F0.015356102727032035
s(I10
I0
tp2174
F0.071485305798252588
s(I4
I1
tp2175
F0
s(I1
I1
tp2176
F0
s(I0
I0
tp2177
F0.079428117553613981
s(I21
I0
tp2178
F0.0097961344982790566
s(I7
I1
tp2179
F0
s(I20
I1
tp2180
F0
s(I6
I0
tp2181
F0.049245432883240667
s(I17
I1
tp2182
F0
s(I11
I0
tp2183
F0.065925337569499601
s(I16
I0
tp2184
F0.014561821551495897
s(I10
I1
tp2185
F0
s(I23
I1
tp2186
F0
s(I1
I0
tp2187
F0.035742652899126294
s(I22
I0
tp2188
F0.027005559968228753
s(I0
I1
tp2189
F0.075721472067778656
s(I13
I1
tp2190
F0
s(I7
I0
tp2191
F0.097961344982790577
s(I12
I0
tp2192
F0.045803547789250727
s(I6
I1
tp2193
F0
s(I3
I1
tp2194
F0
s(I16
I1
tp2195
F0
s(I2
I0
tp2196
F0.014561821551495897
s(I23
I0
tp2197
F0.0029123643102991793
s(I22
I1
tp2198
F0
s(I19
I1
tp2199
F0
s(I17
I0
tp2200
F0.037331215250198571
s(I13
I0
tp2201
F0.027005559968228753
ss(I22
I1
tp2202
(dp2203
(I18
I0
tp2204
F0.0015756302521008404
s(I12
I1
tp2205
F0
s(I9
I1
tp2206
F0
s(I3
I0
tp2207
F0.00052521008403361342
s(I8
I0
tp2208
F0.0068277310924369748
s(I2
I1
tp2209
F0
s(I15
I1
tp2210
F0
s(I14
I0
tp2211
F0.00052521008403361342
s(I19
I0
tp2212
F0
s(I5
I1
tp2213
F0
s(I18
I1
tp2214
F0
s(I4
I0
tp2215
F0.0010504201680672268
s(I9
I0
tp2216
F0.0055147058823529415
s(I8
I1
tp2217
F0
s(I21
I1
tp2218
F0
s(I15
I0
tp2219
F0.00078781512605042019
s(I20
I0
tp2220
F0.00026260504201680671
s(I14
I1
tp2221
F0
s(I11
I1
tp2222
F0
s(I5
I0
tp2223
F0.0010504201680672268
s(I10
I0
tp2224
F0.0039390756302521007
s(I4
I1
tp2225
F0
s(I1
I1
tp2226
F0
s(I0
I0
tp2227
F0.011029411764705883
s(I21
I0
tp2228
F0.00026260504201680671
s(I7
I1
tp2229
F0
s(I20
I1
tp2230
F0
s(I6
I0
tp2231
F0.0049894957983193274
s(I17
I1
tp2232
F0
s(I11
I0
tp2233
F0.0028886554621848741
s(I16
I0
tp2234
F0.00026260504201680671
s(I10
I1
tp2235
F0
s(I23
I1
tp2236
F0.9107142857142857
s(I1
I0
tp2237
F0.004464285714285714
s(I22
I0
tp2238
F0.0013130252100840337
s(I0
I1
tp2239
F0
s(I13
I1
tp2240
F0
s(I7
I0
tp2241
F0.0078781512605042014
s(I12
I0
tp2242
F0.0026260504201680674
s(I6
I1
tp2243
F0
s(I3
I1
tp2244
F0
s(I16
I1
tp2245
F0
s(I2
I0
tp2246
F0.0013130252100840337
s(I23
I0
tp2247
F0.025735294117647058
s(I22
I1
tp2248
F0
s(I19
I1
tp2249
F0
s(I17
I0
tp2250
F0.0023634453781512603
s(I13
I0
tp2251
F0.0021008403361344537
ss(I19
I1
tp2252
(dp2253
(I18
I0
tp2254
F0
s(I12
I1
tp2255
F0
s(I9
I1
tp2256
F0
s(I3
I0
tp2257
F0
s(I8
I0
tp2258
F0.0049710024855012429
s(I2
I1
tp2259
F0
s(I15
I1
tp2260
F0
s(I14
I0
tp2261
F0.0013808340237503453
s(I19
I0
tp2262
F0
s(I5
I1
tp2263
F0
s(I18
I1
tp2264
F0
s(I4
I0
tp2265
F0
s(I9
I0
tp2266
F0.0044186688760011047
s(I8
I1
tp2267
F0
s(I21
I1
tp2268
F0
s(I15
I0
tp2269
F0.0011046672190002762
s(I20
I0
tp2270
F0.056614194973764152
s(I14
I1
tp2271
F0
s(I11
I1
tp2272
F0
s(I5
I0
tp2273
F0.00027616680475006904
s(I10
I0
tp2274
F0.0024855012427506215
s(I4
I1
tp2275
F0
s(I1
I1
tp2276
F0
s(I0
I0
tp2277
F0.0038663352665009665
s(I21
I0
tp2278
F0.022093344380005524
s(I7
I1
tp2279
F0
s(I20
I1
tp2280
F0.86633526650096659
s(I6
I0
tp2281
F0.0019331676332504833
s(I17
I1
tp2282
F0
s(I11
I0
tp2283
F0.0019331676332504833
s(I16
I0
tp2284
F0.00082850041425020708
s(I10
I1
tp2285
F0
s(I23
I1
tp2286
F0
s(I1
I0
tp2287
F0.0019331676332504833
s(I22
I0
tp2288
F0.014913007456503728
s(I0
I1
tp2289
F0
s(I13
I1
tp2290
F0
s(I7
I0
tp2291
F0.0055233360950013811
s(I12
I0
tp2292
F0.0019331676332504833
s(I6
I1
tp2293
F0
s(I3
I1
tp2294
F0
s(I16
I1
tp2295
F0
s(I2
I0
tp2296
F0
s(I23
I0
tp2297
F0.005247169290251312
s(I22
I1
tp2298
F0
s(I19
I1
tp2299
F0
s(I17
I0
tp2300
F0.0019331676332504833
s(I13
I0
tp2301
F0.00027616680475006904
ss(I17
I0
tp2302
(dp2303
(I18
I0
tp2304
F0.24393901524618844
s(I12
I1
tp2305
F0
s(I9
I1
tp2306
F0
s(I3
I0
tp2307
F0.00099975006248437899
s(I8
I0
tp2308
F0.029492626843289179
s(I2
I1
tp2309
F0
s(I15
I1
tp2310
F0
s(I14
I0
tp2311
F0.0049987503124218945
s(I19
I0
tp2312
F0.16820794801299674
s(I5
I1
tp2313
F0
s(I18
I1
tp2314
F0.11147213196700825
s(I4
I0
tp2315
F0.0014996250937265683
s(I9
I0
tp2316
F0.034741314671332166
s(I8
I1
tp2317
F0
s(I21
I1
tp2318
F0
s(I15
I0
tp2319
F0.010247438140464884
s(I20
I0
tp2320
F0.098225443639090221
s(I14
I1
tp2321
F0
s(I11
I1
tp2322
F0
s(I5
I0
tp2323
F0.0029992501874531365
s(I10
I0
tp2324
F0.019995001249687578
s(I4
I1
tp2325
F0
s(I1
I1
tp2326
F0
s(I0
I0
tp2327
F0.010247438140464884
s(I21
I0
tp2328
F0.07223194201449637
s(I7
I1
tp2329
F0
s(I20
I1
tp2330
F0
s(I6
I0
tp2331
F0.010497375656085979
s(I17
I1
tp2332
F0
s(I11
I0
tp2333
F0.026743314171457137
s(I16
I0
tp2334
F0.0047488127968007996
s(I10
I1
tp2335
F0
s(I23
I1
tp2336
F0
s(I1
I0
tp2337
F0.0042489377655586099
s(I22
I0
tp2338
F0.064483879030242441
s(I0
I1
tp2339
F0
s(I13
I1
tp2340
F0
s(I7
I0
tp2341
F0.025993501624593851
s(I12
I0
tp2342
F0.015746063484128967
s(I6
I1
tp2343
F0
s(I3
I1
tp2344
F0
s(I16
I1
tp2345
F0
s(I2
I0
tp2346
F0.00099975006248437899
s(I23
I0
tp2347
F0.019745063734066485
s(I22
I1
tp2348
F0
s(I19
I1
tp2349
F0
s(I17
I0
tp2350
F0.0074981254686328422
s(I13
I0
tp2351
F0.009997500624843789
ss(I13
I0
tp2352
(dp2353
(I18
I0
tp2354
F0.071746660069272633
s(I12
I1
tp2355
F0
s(I9
I1
tp2356
F0
s(I3
I0
tp2357
F0.00049480455220188031
s(I8
I0
tp2358
F0.014596734289955468
s(I2
I1
tp2359
F0
s(I15
I1
tp2360
F0
s(I14
I0
tp2361
F0.20460168233547749
s(I19
I0
tp2362
F0.061603166749134089
s(I5
I1
tp2363
F0
s(I18
I1
tp2364
F0
s(I4
I0
tp2365
F0.00024740227610094015
s(I9
I0
tp2366
F0.024492825333993072
s(I8
I1
tp2367
F0
s(I21
I1
tp2368
F0
s(I15
I0
tp2369
F0.13334982681840674
s(I20
I0
tp2370
F0.03290450272142504
s(I14
I1
tp2371
F0.086343394359228109
s(I11
I1
tp2372
F0
s(I5
I0
tp2373
F0.00024740227610094015
s(I10
I0
tp2374
F0.011627906976744186
s(I4
I1
tp2375
F0
s(I1
I1
tp2376
F0
s(I0
I0
tp2377
F0.0051954477981197428
s(I21
I0
tp2378
F0.026966848095002473
s(I7
I1
tp2379
F0
s(I20
I1
tp2380
F0
s(I6
I0
tp2381
F0.0044532409698169219
s(I17
I1
tp2382
F0
s(I11
I0
tp2383
F0.02177140029688273
s(I16
I0
tp2384
F0.089064819396338452
s(I10
I1
tp2385
F0
s(I23
I1
tp2386
F0
s(I1
I0
tp2387
F0.0029688273132112814
s(I22
I0
tp2388
F0.038347352795645717
s(I0
I1
tp2389
F0
s(I13
I1
tp2390
F0
s(I7
I0
tp2391
F0.014596734289955468
s(I12
I0
tp2392
F0.011627906976744186
s(I6
I1
tp2393
F0
s(I3
I1
tp2394
F0
s(I16
I1
tp2395
F0
s(I2
I0
tp2396
F0
s(I23
I0
tp2397
F0.0069272637308263234
s(I22
I1
tp2398
F0
s(I19
I1
tp2399
F0
s(I17
I0
tp2400
F0.12914398812469075
s(I13
I0
tp2401
F0.0066798614547253837
ss.